   1              		.cpu cortex-m3
   2              		.eabi_attribute 20, 1
   3              		.eabi_attribute 21, 1
   4              		.eabi_attribute 23, 3
   5              		.eabi_attribute 24, 1
   6              		.eabi_attribute 25, 1
   7              		.eabi_attribute 26, 1
   8              		.eabi_attribute 30, 2
   9              		.eabi_attribute 34, 1
  10              		.eabi_attribute 18, 4
  11              		.file	"it_handlers.c"
  12              		.text
  13              	.Ltext0:
  14              		.cfi_sections	.debug_frame
  15              		.section	.text.USART1_IRQHandler,"ax",%progbits
  16              		.align	1
  17              		.p2align 2,,3
  18              		.global	USART1_IRQHandler
  19              		.syntax unified
  20              		.thumb
  21              		.thumb_func
  22              		.fpu softvfp
  24              	USART1_IRQHandler:
  25              	.LFB27:
  26              		.file 1 "it_handlers.c"
   1:it_handlers.c **** #include "it_handlers.h"
   2:it_handlers.c **** #include "defines.h"
   3:it_handlers.c **** #include "main.h"
   4:it_handlers.c **** #include "lcd.h"
   5:it_handlers.c **** #include "gps.h"
   6:it_handlers.c **** 
   7:it_handlers.c **** // Interruption de reception de données série
   8:it_handlers.c **** void USART1_IRQHandler(void)
   9:it_handlers.c **** {
  27              		.loc 1 9 0
  28              		.cfi_startproc
  29              		@ args = 0, pretend = 0, frame = 0
  30              		@ frame_needed = 0, uses_anonymous_args = 0
  31 0000 10B5     		push	{r4, lr}
  32              	.LCFI0:
  33              		.cfi_def_cfa_offset 8
  34              		.cfi_offset 4, -8
  35              		.cfi_offset 14, -4
  10:it_handlers.c ****   if(USART_GetITStatus(USART1, USART_IT_RXNE) != RESET)
  36              		.loc 1 10 0
  37 0002 40F22551 		movw	r1, #1317
  38 0006 0648     		ldr	r0, .L6
  39 0008 064B     		ldr	r3, .L6+4
  40 000a 9847     		blx	r3
  41              	.LVL0:
  42 000c 00B9     		cbnz	r0, .L5
  11:it_handlers.c ****   {
  12:it_handlers.c ****     /* Read one byte from the receive data register */
  13:it_handlers.c ****     char data = USART_ReceiveData(USART1);
  14:it_handlers.c ****     gpsDataReceived(data);
  15:it_handlers.c ****   }
  16:it_handlers.c **** }
  43              		.loc 1 16 0
  44 000e 10BD     		pop	{r4, pc}
  45              	.L5:
  46              	.LBB2:
  13:it_handlers.c ****     gpsDataReceived(data);
  47              		.loc 1 13 0
  48 0010 054B     		ldr	r3, .L6+8
  49 0012 0348     		ldr	r0, .L6
  50 0014 9847     		blx	r3
  51              	.LVL1:
  52              	.LBE2:
  53              		.loc 1 16 0
  54 0016 BDE81040 		pop	{r4, lr}
  55              	.LCFI1:
  56              		.cfi_restore 14
  57              		.cfi_restore 4
  58              		.cfi_def_cfa_offset 0
  59              	.LBB3:
  14:it_handlers.c ****   }
  60              		.loc 1 14 0
  61 001a 044B     		ldr	r3, .L6+12
  62 001c C0B2     		uxtb	r0, r0
  63 001e 1847     		bx	r3	@ indirect register sibling call
  64              	.LVL2:
  65              	.L7:
  66              		.align	2
  67              	.L6:
  68 0020 00380140 		.word	1073821696
  69 0024 00000000 		.word	USART_GetITStatus
  70 0028 00000000 		.word	USART_ReceiveData
  71 002c 00000000 		.word	gpsDataReceived
  72              	.LBE3:
  73              		.cfi_endproc
  74              	.LFE27:
  76              		.section	.text.HardFault_Handler,"ax",%progbits
  77              		.align	1
  78              		.p2align 2,,3
  79              		.global	HardFault_Handler
  80              		.syntax unified
  81              		.thumb
  82              		.thumb_func
  83              		.fpu softvfp
  85              	HardFault_Handler:
  86              	.LFB28:
  17:it_handlers.c **** 
  18:it_handlers.c **** void HardFault_Handler(void){
  87              		.loc 1 18 0
  88              		.cfi_startproc
  89              		@ args = 0, pretend = 0, frame = 0
  90              		@ frame_needed = 0, uses_anonymous_args = 0
  91              		@ link register save eliminated.
  19:it_handlers.c ****   LCDPrintStringXY(0,0,"HardFault");
  92              		.loc 1 19 0
  93 0000 0021     		movs	r1, #0
  94 0002 024A     		ldr	r2, .L9
  95 0004 0846     		mov	r0, r1
  96 0006 024B     		ldr	r3, .L9+4
  97 0008 1847     		bx	r3	@ indirect register sibling call
  98              	.LVL3:
  99              	.L10:
 100 000a 00BF     		.align	2
 101              	.L9:
 102 000c 00000000 		.word	.LC0
 103 0010 00000000 		.word	LCDPrintStringXY
 104              		.cfi_endproc
 105              	.LFE28:
 107              		.section	.text.MemManage_Handler,"ax",%progbits
 108              		.align	1
 109              		.p2align 2,,3
 110              		.global	MemManage_Handler
 111              		.syntax unified
 112              		.thumb
 113              		.thumb_func
 114              		.fpu softvfp
 116              	MemManage_Handler:
 117              	.LFB29:
  20:it_handlers.c **** }
  21:it_handlers.c **** 
  22:it_handlers.c **** void MemManage_Handler(void){
 118              		.loc 1 22 0
 119              		.cfi_startproc
 120              		@ args = 0, pretend = 0, frame = 0
 121              		@ frame_needed = 0, uses_anonymous_args = 0
 122              		@ link register save eliminated.
  23:it_handlers.c ****   LCDPrintStringXY(0,0,"MemManager");
 123              		.loc 1 23 0
 124 0000 0021     		movs	r1, #0
 125 0002 024A     		ldr	r2, .L12
 126 0004 0846     		mov	r0, r1
 127 0006 024B     		ldr	r3, .L12+4
 128 0008 1847     		bx	r3	@ indirect register sibling call
 129              	.LVL4:
 130              	.L13:
 131 000a 00BF     		.align	2
 132              	.L12:
 133 000c 00000000 		.word	.LC1
 134 0010 00000000 		.word	LCDPrintStringXY
 135              		.cfi_endproc
 136              	.LFE29:
 138              		.section	.text.BusFault_Handler,"ax",%progbits
 139              		.align	1
 140              		.p2align 2,,3
 141              		.global	BusFault_Handler
 142              		.syntax unified
 143              		.thumb
 144              		.thumb_func
 145              		.fpu softvfp
 147              	BusFault_Handler:
 148              	.LFB30:
  24:it_handlers.c **** }
  25:it_handlers.c **** 
  26:it_handlers.c **** void BusFault_Handler(void){
 149              		.loc 1 26 0
 150              		.cfi_startproc
 151              		@ args = 0, pretend = 0, frame = 0
 152              		@ frame_needed = 0, uses_anonymous_args = 0
 153              		@ link register save eliminated.
  27:it_handlers.c ****   LCDPrintStringXY(0,0,"BusFault");
 154              		.loc 1 27 0
 155 0000 0021     		movs	r1, #0
 156 0002 024A     		ldr	r2, .L15
 157 0004 0846     		mov	r0, r1
 158 0006 024B     		ldr	r3, .L15+4
 159 0008 1847     		bx	r3	@ indirect register sibling call
 160              	.LVL5:
 161              	.L16:
 162 000a 00BF     		.align	2
 163              	.L15:
 164 000c 00000000 		.word	.LC2
 165 0010 00000000 		.word	LCDPrintStringXY
 166              		.cfi_endproc
 167              	.LFE30:
 169              		.section	.text.UsageFault_Handler,"ax",%progbits
 170              		.align	1
 171              		.p2align 2,,3
 172              		.global	UsageFault_Handler
 173              		.syntax unified
 174              		.thumb
 175              		.thumb_func
 176              		.fpu softvfp
 178              	UsageFault_Handler:
 179              	.LFB31:
  28:it_handlers.c **** }
  29:it_handlers.c **** 
  30:it_handlers.c **** void UsageFault_Handler(void){
 180              		.loc 1 30 0
 181              		.cfi_startproc
 182              		@ args = 0, pretend = 0, frame = 0
 183              		@ frame_needed = 0, uses_anonymous_args = 0
 184              		@ link register save eliminated.
  31:it_handlers.c ****   LCDPrintStringXY(0,0,"Usage Fault");
 185              		.loc 1 31 0
 186 0000 0021     		movs	r1, #0
 187 0002 024A     		ldr	r2, .L18
 188 0004 0846     		mov	r0, r1
 189 0006 024B     		ldr	r3, .L18+4
 190 0008 1847     		bx	r3	@ indirect register sibling call
 191              	.LVL6:
 192              	.L19:
 193 000a 00BF     		.align	2
 194              	.L18:
 195 000c 00000000 		.word	.LC3
 196 0010 00000000 		.word	LCDPrintStringXY
 197              		.cfi_endproc
 198              	.LFE31:
 200              		.comm	posY,4,4
 201              		.comm	posX,4,4
 202              		.comm	screen,1,1
 203              		.section	.rodata.BusFault_Handler.str1.4,"aMS",%progbits,1
 204              		.align	2
 205              	.LC2:
 206 0000 42757346 		.ascii	"BusFault\000"
 206      61756C74 
 206      00
 207              		.section	.rodata.HardFault_Handler.str1.4,"aMS",%progbits,1
 208              		.align	2
 209              	.LC0:
 210 0000 48617264 		.ascii	"HardFault\000"
 210      4661756C 
 210      7400
 211              		.section	.rodata.MemManage_Handler.str1.4,"aMS",%progbits,1
 212              		.align	2
 213              	.LC1:
 214 0000 4D656D4D 		.ascii	"MemManager\000"
 214      616E6167 
 214      657200
 215              		.section	.rodata.UsageFault_Handler.str1.4,"aMS",%progbits,1
 216              		.align	2
 217              	.LC3:
 218 0000 55736167 		.ascii	"Usage Fault\000"
 218      65204661 
 218      756C7400 
 219              		.text
 220              	.Letext0:
 221              		.file 2 "c:\\program files (x86)\\gnu tools arm embedded\\7 2017-q4-major\\arm-none-eabi\\include\
 222              		.file 3 "c:\\program files (x86)\\gnu tools arm embedded\\7 2017-q4-major\\arm-none-eabi\\include\
 223              		.file 4 "./Libraries/CMSIS/Core/CM3/system_stm32f10x.h"
 224              		.file 5 "./Libraries/CMSIS/Core/CM3/stm32f10x.h"
 225              		.file 6 "main.h"
 226              		.file 7 "u8g/u8g.h"
 227              		.file 8 "lcd.h"
 228              		.file 9 "gps.h"
 229              		.file 10 "./Libraries/STM32F10x_StdPeriph_Driver/inc/stm32f10x_usart.h"