   1              		.cpu cortex-m3
   2              		.eabi_attribute 20, 1
   3              		.eabi_attribute 21, 1
   4              		.eabi_attribute 23, 3
   5              		.eabi_attribute 24, 1
   6              		.eabi_attribute 25, 1
   7              		.eabi_attribute 26, 1
   8              		.eabi_attribute 30, 2
   9              		.eabi_attribute 34, 1
  10              		.eabi_attribute 18, 4
  11              		.file	"stm32f10x_rcc.c"
  12              		.text
  13              	.Ltext0:
  14              		.cfi_sections	.debug_frame
  15              		.section	.text.RCC_DeInit,"ax",%progbits
  16              		.align	1
  17              		.p2align 2,,3
  18              		.global	RCC_DeInit
  19              		.syntax unified
  20              		.thumb
  21              		.thumb_func
  22              		.fpu softvfp
  24              	RCC_DeInit:
  25              	.LFB27:
  26              		.file 1 "Libraries/STM32F10x_StdPeriph_Driver/src/stm32f10x_rcc.c"
   1:Libraries/STM32F10x_StdPeriph_Driver/src/stm32f10x_rcc.c **** /**
   2:Libraries/STM32F10x_StdPeriph_Driver/src/stm32f10x_rcc.c ****   ******************************************************************************
   3:Libraries/STM32F10x_StdPeriph_Driver/src/stm32f10x_rcc.c ****   * @file    stm32f10x_rcc.c
   4:Libraries/STM32F10x_StdPeriph_Driver/src/stm32f10x_rcc.c ****   * @author  MCD Application Team
   5:Libraries/STM32F10x_StdPeriph_Driver/src/stm32f10x_rcc.c ****   * @version V3.1.2
   6:Libraries/STM32F10x_StdPeriph_Driver/src/stm32f10x_rcc.c ****   * @date    09/28/2009
   7:Libraries/STM32F10x_StdPeriph_Driver/src/stm32f10x_rcc.c ****   * @brief   This file provides all the RCC firmware functions.
   8:Libraries/STM32F10x_StdPeriph_Driver/src/stm32f10x_rcc.c ****   ******************************************************************************
   9:Libraries/STM32F10x_StdPeriph_Driver/src/stm32f10x_rcc.c ****   * @copy
  10:Libraries/STM32F10x_StdPeriph_Driver/src/stm32f10x_rcc.c ****   *
  11:Libraries/STM32F10x_StdPeriph_Driver/src/stm32f10x_rcc.c ****   * THE PRESENT FIRMWARE WHICH IS FOR GUIDANCE ONLY AIMS AT PROVIDING CUSTOMERS
  12:Libraries/STM32F10x_StdPeriph_Driver/src/stm32f10x_rcc.c ****   * WITH CODING INFORMATION REGARDING THEIR PRODUCTS IN ORDER FOR THEM TO SAVE
  13:Libraries/STM32F10x_StdPeriph_Driver/src/stm32f10x_rcc.c ****   * TIME. AS A RESULT, STMICROELECTRONICS SHALL NOT BE HELD LIABLE FOR ANY
  14:Libraries/STM32F10x_StdPeriph_Driver/src/stm32f10x_rcc.c ****   * DIRECT, INDIRECT OR CONSEQUENTIAL DAMAGES WITH RESPECT TO ANY CLAIMS ARISING
  15:Libraries/STM32F10x_StdPeriph_Driver/src/stm32f10x_rcc.c ****   * FROM THE CONTENT OF SUCH FIRMWARE AND/OR THE USE MADE BY CUSTOMERS OF THE
  16:Libraries/STM32F10x_StdPeriph_Driver/src/stm32f10x_rcc.c ****   * CODING INFORMATION CONTAINED HEREIN IN CONNECTION WITH THEIR PRODUCTS.
  17:Libraries/STM32F10x_StdPeriph_Driver/src/stm32f10x_rcc.c ****   *
  18:Libraries/STM32F10x_StdPeriph_Driver/src/stm32f10x_rcc.c ****   * <h2><center>&copy; COPYRIGHT 2009 STMicroelectronics</center></h2>
  19:Libraries/STM32F10x_StdPeriph_Driver/src/stm32f10x_rcc.c ****   */ 
  20:Libraries/STM32F10x_StdPeriph_Driver/src/stm32f10x_rcc.c **** 
  21:Libraries/STM32F10x_StdPeriph_Driver/src/stm32f10x_rcc.c **** /* Includes ------------------------------------------------------------------*/
  22:Libraries/STM32F10x_StdPeriph_Driver/src/stm32f10x_rcc.c **** #include "stm32f10x_rcc.h"
  23:Libraries/STM32F10x_StdPeriph_Driver/src/stm32f10x_rcc.c **** 
  24:Libraries/STM32F10x_StdPeriph_Driver/src/stm32f10x_rcc.c **** /** @addtogroup STM32F10x_StdPeriph_Driver
  25:Libraries/STM32F10x_StdPeriph_Driver/src/stm32f10x_rcc.c ****   * @{
  26:Libraries/STM32F10x_StdPeriph_Driver/src/stm32f10x_rcc.c ****   */
  27:Libraries/STM32F10x_StdPeriph_Driver/src/stm32f10x_rcc.c **** 
  28:Libraries/STM32F10x_StdPeriph_Driver/src/stm32f10x_rcc.c **** /** @defgroup RCC 
  29:Libraries/STM32F10x_StdPeriph_Driver/src/stm32f10x_rcc.c ****   * @brief RCC driver modules
  30:Libraries/STM32F10x_StdPeriph_Driver/src/stm32f10x_rcc.c ****   * @{
  31:Libraries/STM32F10x_StdPeriph_Driver/src/stm32f10x_rcc.c ****   */ 
  32:Libraries/STM32F10x_StdPeriph_Driver/src/stm32f10x_rcc.c **** 
  33:Libraries/STM32F10x_StdPeriph_Driver/src/stm32f10x_rcc.c **** /** @defgroup RCC_Private_TypesDefinitions
  34:Libraries/STM32F10x_StdPeriph_Driver/src/stm32f10x_rcc.c ****   * @{
  35:Libraries/STM32F10x_StdPeriph_Driver/src/stm32f10x_rcc.c ****   */
  36:Libraries/STM32F10x_StdPeriph_Driver/src/stm32f10x_rcc.c **** 
  37:Libraries/STM32F10x_StdPeriph_Driver/src/stm32f10x_rcc.c **** /**
  38:Libraries/STM32F10x_StdPeriph_Driver/src/stm32f10x_rcc.c ****   * @}
  39:Libraries/STM32F10x_StdPeriph_Driver/src/stm32f10x_rcc.c ****   */
  40:Libraries/STM32F10x_StdPeriph_Driver/src/stm32f10x_rcc.c **** 
  41:Libraries/STM32F10x_StdPeriph_Driver/src/stm32f10x_rcc.c **** /** @defgroup RCC_Private_Defines
  42:Libraries/STM32F10x_StdPeriph_Driver/src/stm32f10x_rcc.c ****   * @{
  43:Libraries/STM32F10x_StdPeriph_Driver/src/stm32f10x_rcc.c ****   */
  44:Libraries/STM32F10x_StdPeriph_Driver/src/stm32f10x_rcc.c **** 
  45:Libraries/STM32F10x_StdPeriph_Driver/src/stm32f10x_rcc.c **** /* ------------ RCC registers bit address in the alias region ----------- */
  46:Libraries/STM32F10x_StdPeriph_Driver/src/stm32f10x_rcc.c **** #define RCC_OFFSET                (RCC_BASE - PERIPH_BASE)
  47:Libraries/STM32F10x_StdPeriph_Driver/src/stm32f10x_rcc.c **** 
  48:Libraries/STM32F10x_StdPeriph_Driver/src/stm32f10x_rcc.c **** /* --- CR Register ---*/
  49:Libraries/STM32F10x_StdPeriph_Driver/src/stm32f10x_rcc.c **** 
  50:Libraries/STM32F10x_StdPeriph_Driver/src/stm32f10x_rcc.c **** /* Alias word address of HSION bit */
  51:Libraries/STM32F10x_StdPeriph_Driver/src/stm32f10x_rcc.c **** #define CR_OFFSET                 (RCC_OFFSET + 0x00)
  52:Libraries/STM32F10x_StdPeriph_Driver/src/stm32f10x_rcc.c **** #define HSION_BitNumber           0x00
  53:Libraries/STM32F10x_StdPeriph_Driver/src/stm32f10x_rcc.c **** #define CR_HSION_BB               (PERIPH_BB_BASE + (CR_OFFSET * 32) + (HSION_BitNumber * 4))
  54:Libraries/STM32F10x_StdPeriph_Driver/src/stm32f10x_rcc.c **** 
  55:Libraries/STM32F10x_StdPeriph_Driver/src/stm32f10x_rcc.c **** /* Alias word address of PLLON bit */
  56:Libraries/STM32F10x_StdPeriph_Driver/src/stm32f10x_rcc.c **** #define PLLON_BitNumber           0x18
  57:Libraries/STM32F10x_StdPeriph_Driver/src/stm32f10x_rcc.c **** #define CR_PLLON_BB               (PERIPH_BB_BASE + (CR_OFFSET * 32) + (PLLON_BitNumber * 4))
  58:Libraries/STM32F10x_StdPeriph_Driver/src/stm32f10x_rcc.c **** 
  59:Libraries/STM32F10x_StdPeriph_Driver/src/stm32f10x_rcc.c **** #ifdef STM32F10X_CL
  60:Libraries/STM32F10x_StdPeriph_Driver/src/stm32f10x_rcc.c ****  /* Alias word address of PLL2ON bit */
  61:Libraries/STM32F10x_StdPeriph_Driver/src/stm32f10x_rcc.c ****  #define PLL2ON_BitNumber          0x1A
  62:Libraries/STM32F10x_StdPeriph_Driver/src/stm32f10x_rcc.c ****  #define CR_PLL2ON_BB              (PERIPH_BB_BASE + (CR_OFFSET * 32) + (PLL2ON_BitNumber * 4))
  63:Libraries/STM32F10x_StdPeriph_Driver/src/stm32f10x_rcc.c **** 
  64:Libraries/STM32F10x_StdPeriph_Driver/src/stm32f10x_rcc.c ****  /* Alias word address of PLL3ON bit */
  65:Libraries/STM32F10x_StdPeriph_Driver/src/stm32f10x_rcc.c ****  #define PLL3ON_BitNumber          0x1C
  66:Libraries/STM32F10x_StdPeriph_Driver/src/stm32f10x_rcc.c ****  #define CR_PLL3ON_BB              (PERIPH_BB_BASE + (CR_OFFSET * 32) + (PLL3ON_BitNumber * 4))
  67:Libraries/STM32F10x_StdPeriph_Driver/src/stm32f10x_rcc.c **** #endif /* STM32F10X_CL */ 
  68:Libraries/STM32F10x_StdPeriph_Driver/src/stm32f10x_rcc.c **** 
  69:Libraries/STM32F10x_StdPeriph_Driver/src/stm32f10x_rcc.c **** /* Alias word address of CSSON bit */
  70:Libraries/STM32F10x_StdPeriph_Driver/src/stm32f10x_rcc.c **** #define CSSON_BitNumber           0x13
  71:Libraries/STM32F10x_StdPeriph_Driver/src/stm32f10x_rcc.c **** #define CR_CSSON_BB               (PERIPH_BB_BASE + (CR_OFFSET * 32) + (CSSON_BitNumber * 4))
  72:Libraries/STM32F10x_StdPeriph_Driver/src/stm32f10x_rcc.c **** 
  73:Libraries/STM32F10x_StdPeriph_Driver/src/stm32f10x_rcc.c **** /* --- CFGR Register ---*/
  74:Libraries/STM32F10x_StdPeriph_Driver/src/stm32f10x_rcc.c **** 
  75:Libraries/STM32F10x_StdPeriph_Driver/src/stm32f10x_rcc.c **** /* Alias word address of USBPRE bit */
  76:Libraries/STM32F10x_StdPeriph_Driver/src/stm32f10x_rcc.c **** #define CFGR_OFFSET               (RCC_OFFSET + 0x04)
  77:Libraries/STM32F10x_StdPeriph_Driver/src/stm32f10x_rcc.c **** 
  78:Libraries/STM32F10x_StdPeriph_Driver/src/stm32f10x_rcc.c **** #ifndef STM32F10X_CL
  79:Libraries/STM32F10x_StdPeriph_Driver/src/stm32f10x_rcc.c ****  #define USBPRE_BitNumber          0x16
  80:Libraries/STM32F10x_StdPeriph_Driver/src/stm32f10x_rcc.c ****  #define CFGR_USBPRE_BB            (PERIPH_BB_BASE + (CFGR_OFFSET * 32) + (USBPRE_BitNumber * 4))
  81:Libraries/STM32F10x_StdPeriph_Driver/src/stm32f10x_rcc.c **** #else
  82:Libraries/STM32F10x_StdPeriph_Driver/src/stm32f10x_rcc.c ****  #define OTGFSPRE_BitNumber        0x16
  83:Libraries/STM32F10x_StdPeriph_Driver/src/stm32f10x_rcc.c ****  #define CFGR_OTGFSPRE_BB          (PERIPH_BB_BASE + (CFGR_OFFSET * 32) + (OTGFSPRE_BitNumber * 4))
  84:Libraries/STM32F10x_StdPeriph_Driver/src/stm32f10x_rcc.c **** #endif /* STM32F10X_CL */ 
  85:Libraries/STM32F10x_StdPeriph_Driver/src/stm32f10x_rcc.c **** 
  86:Libraries/STM32F10x_StdPeriph_Driver/src/stm32f10x_rcc.c **** /* --- BDCR Register ---*/
  87:Libraries/STM32F10x_StdPeriph_Driver/src/stm32f10x_rcc.c **** 
  88:Libraries/STM32F10x_StdPeriph_Driver/src/stm32f10x_rcc.c **** /* Alias word address of RTCEN bit */
  89:Libraries/STM32F10x_StdPeriph_Driver/src/stm32f10x_rcc.c **** #define BDCR_OFFSET               (RCC_OFFSET + 0x20)
  90:Libraries/STM32F10x_StdPeriph_Driver/src/stm32f10x_rcc.c **** #define RTCEN_BitNumber           0x0F
  91:Libraries/STM32F10x_StdPeriph_Driver/src/stm32f10x_rcc.c **** #define BDCR_RTCEN_BB             (PERIPH_BB_BASE + (BDCR_OFFSET * 32) + (RTCEN_BitNumber * 4))
  92:Libraries/STM32F10x_StdPeriph_Driver/src/stm32f10x_rcc.c **** 
  93:Libraries/STM32F10x_StdPeriph_Driver/src/stm32f10x_rcc.c **** /* Alias word address of BDRST bit */
  94:Libraries/STM32F10x_StdPeriph_Driver/src/stm32f10x_rcc.c **** #define BDRST_BitNumber           0x10
  95:Libraries/STM32F10x_StdPeriph_Driver/src/stm32f10x_rcc.c **** #define BDCR_BDRST_BB             (PERIPH_BB_BASE + (BDCR_OFFSET * 32) + (BDRST_BitNumber * 4))
  96:Libraries/STM32F10x_StdPeriph_Driver/src/stm32f10x_rcc.c **** 
  97:Libraries/STM32F10x_StdPeriph_Driver/src/stm32f10x_rcc.c **** /* --- CSR Register ---*/
  98:Libraries/STM32F10x_StdPeriph_Driver/src/stm32f10x_rcc.c **** 
  99:Libraries/STM32F10x_StdPeriph_Driver/src/stm32f10x_rcc.c **** /* Alias word address of LSION bit */
 100:Libraries/STM32F10x_StdPeriph_Driver/src/stm32f10x_rcc.c **** #define CSR_OFFSET                (RCC_OFFSET + 0x24)
 101:Libraries/STM32F10x_StdPeriph_Driver/src/stm32f10x_rcc.c **** #define LSION_BitNumber           0x00
 102:Libraries/STM32F10x_StdPeriph_Driver/src/stm32f10x_rcc.c **** #define CSR_LSION_BB              (PERIPH_BB_BASE + (CSR_OFFSET * 32) + (LSION_BitNumber * 4))
 103:Libraries/STM32F10x_StdPeriph_Driver/src/stm32f10x_rcc.c **** 
 104:Libraries/STM32F10x_StdPeriph_Driver/src/stm32f10x_rcc.c **** #ifdef STM32F10X_CL
 105:Libraries/STM32F10x_StdPeriph_Driver/src/stm32f10x_rcc.c **** /* --- CFGR2 Register ---*/
 106:Libraries/STM32F10x_StdPeriph_Driver/src/stm32f10x_rcc.c **** 
 107:Libraries/STM32F10x_StdPeriph_Driver/src/stm32f10x_rcc.c ****  /* Alias word address of I2S2SRC bit */
 108:Libraries/STM32F10x_StdPeriph_Driver/src/stm32f10x_rcc.c ****  #define CFGR2_OFFSET              (RCC_OFFSET + 0x2C)
 109:Libraries/STM32F10x_StdPeriph_Driver/src/stm32f10x_rcc.c ****  #define I2S2SRC_BitNumber         0x11
 110:Libraries/STM32F10x_StdPeriph_Driver/src/stm32f10x_rcc.c ****  #define CFGR2_I2S2SRC_BB          (PERIPH_BB_BASE + (CFGR2_OFFSET * 32) + (I2S2SRC_BitNumber * 4))
 111:Libraries/STM32F10x_StdPeriph_Driver/src/stm32f10x_rcc.c **** 
 112:Libraries/STM32F10x_StdPeriph_Driver/src/stm32f10x_rcc.c ****  /* Alias word address of I2S3SRC bit */
 113:Libraries/STM32F10x_StdPeriph_Driver/src/stm32f10x_rcc.c ****  #define I2S3SRC_BitNumber         0x12
 114:Libraries/STM32F10x_StdPeriph_Driver/src/stm32f10x_rcc.c ****  #define CFGR2_I2S3SRC_BB          (PERIPH_BB_BASE + (CFGR2_OFFSET * 32) + (I2S3SRC_BitNumber * 4))
 115:Libraries/STM32F10x_StdPeriph_Driver/src/stm32f10x_rcc.c **** #endif /* STM32F10X_CL */
 116:Libraries/STM32F10x_StdPeriph_Driver/src/stm32f10x_rcc.c **** 
 117:Libraries/STM32F10x_StdPeriph_Driver/src/stm32f10x_rcc.c **** /* ---------------------- RCC registers bit mask ------------------------ */
 118:Libraries/STM32F10x_StdPeriph_Driver/src/stm32f10x_rcc.c **** 
 119:Libraries/STM32F10x_StdPeriph_Driver/src/stm32f10x_rcc.c **** /* CR register bit mask */
 120:Libraries/STM32F10x_StdPeriph_Driver/src/stm32f10x_rcc.c **** #define CR_HSEBYP_Reset           ((uint32_t)0xFFFBFFFF)
 121:Libraries/STM32F10x_StdPeriph_Driver/src/stm32f10x_rcc.c **** #define CR_HSEBYP_Set             ((uint32_t)0x00040000)
 122:Libraries/STM32F10x_StdPeriph_Driver/src/stm32f10x_rcc.c **** #define CR_HSEON_Reset            ((uint32_t)0xFFFEFFFF)
 123:Libraries/STM32F10x_StdPeriph_Driver/src/stm32f10x_rcc.c **** #define CR_HSEON_Set              ((uint32_t)0x00010000)
 124:Libraries/STM32F10x_StdPeriph_Driver/src/stm32f10x_rcc.c **** #define CR_HSITRIM_Mask           ((uint32_t)0xFFFFFF07)
 125:Libraries/STM32F10x_StdPeriph_Driver/src/stm32f10x_rcc.c **** 
 126:Libraries/STM32F10x_StdPeriph_Driver/src/stm32f10x_rcc.c **** /* CFGR register bit mask */
 127:Libraries/STM32F10x_StdPeriph_Driver/src/stm32f10x_rcc.c **** #ifndef STM32F10X_CL
 128:Libraries/STM32F10x_StdPeriph_Driver/src/stm32f10x_rcc.c ****  #define CFGR_PLL_Mask            ((uint32_t)0xFFC0FFFF)
 129:Libraries/STM32F10x_StdPeriph_Driver/src/stm32f10x_rcc.c **** #else
 130:Libraries/STM32F10x_StdPeriph_Driver/src/stm32f10x_rcc.c ****  #define CFGR_PLL_Mask           ((uint32_t)0xFFC2FFFF)
 131:Libraries/STM32F10x_StdPeriph_Driver/src/stm32f10x_rcc.c **** #endif /* STM32F10X_CL */ 
 132:Libraries/STM32F10x_StdPeriph_Driver/src/stm32f10x_rcc.c **** 
 133:Libraries/STM32F10x_StdPeriph_Driver/src/stm32f10x_rcc.c **** #define CFGR_PLLMull_Mask         ((uint32_t)0x003C0000)
 134:Libraries/STM32F10x_StdPeriph_Driver/src/stm32f10x_rcc.c **** #define CFGR_PLLSRC_Mask          ((uint32_t)0x00010000)
 135:Libraries/STM32F10x_StdPeriph_Driver/src/stm32f10x_rcc.c **** #define CFGR_PLLXTPRE_Mask        ((uint32_t)0x00020000)
 136:Libraries/STM32F10x_StdPeriph_Driver/src/stm32f10x_rcc.c **** #define CFGR_SWS_Mask             ((uint32_t)0x0000000C)
 137:Libraries/STM32F10x_StdPeriph_Driver/src/stm32f10x_rcc.c **** #define CFGR_SW_Mask              ((uint32_t)0xFFFFFFFC)
 138:Libraries/STM32F10x_StdPeriph_Driver/src/stm32f10x_rcc.c **** #define CFGR_HPRE_Reset_Mask      ((uint32_t)0xFFFFFF0F)
 139:Libraries/STM32F10x_StdPeriph_Driver/src/stm32f10x_rcc.c **** #define CFGR_HPRE_Set_Mask        ((uint32_t)0x000000F0)
 140:Libraries/STM32F10x_StdPeriph_Driver/src/stm32f10x_rcc.c **** #define CFGR_PPRE1_Reset_Mask     ((uint32_t)0xFFFFF8FF)
 141:Libraries/STM32F10x_StdPeriph_Driver/src/stm32f10x_rcc.c **** #define CFGR_PPRE1_Set_Mask       ((uint32_t)0x00000700)
 142:Libraries/STM32F10x_StdPeriph_Driver/src/stm32f10x_rcc.c **** #define CFGR_PPRE2_Reset_Mask     ((uint32_t)0xFFFFC7FF)
 143:Libraries/STM32F10x_StdPeriph_Driver/src/stm32f10x_rcc.c **** #define CFGR_PPRE2_Set_Mask       ((uint32_t)0x00003800)
 144:Libraries/STM32F10x_StdPeriph_Driver/src/stm32f10x_rcc.c **** #define CFGR_ADCPRE_Reset_Mask    ((uint32_t)0xFFFF3FFF)
 145:Libraries/STM32F10x_StdPeriph_Driver/src/stm32f10x_rcc.c **** #define CFGR_ADCPRE_Set_Mask      ((uint32_t)0x0000C000)
 146:Libraries/STM32F10x_StdPeriph_Driver/src/stm32f10x_rcc.c **** 
 147:Libraries/STM32F10x_StdPeriph_Driver/src/stm32f10x_rcc.c **** /* CSR register bit mask */
 148:Libraries/STM32F10x_StdPeriph_Driver/src/stm32f10x_rcc.c **** #define CSR_RMVF_Set              ((uint32_t)0x01000000)
 149:Libraries/STM32F10x_StdPeriph_Driver/src/stm32f10x_rcc.c **** 
 150:Libraries/STM32F10x_StdPeriph_Driver/src/stm32f10x_rcc.c **** #ifdef STM32F10X_CL
 151:Libraries/STM32F10x_StdPeriph_Driver/src/stm32f10x_rcc.c **** /* CFGR2 register bit mask */
 152:Libraries/STM32F10x_StdPeriph_Driver/src/stm32f10x_rcc.c ****  #define CFGR2_PREDIV1SRC         ((uint32_t)0x00010000)
 153:Libraries/STM32F10x_StdPeriph_Driver/src/stm32f10x_rcc.c ****  #define CFGR2_PREDIV1            ((uint32_t)0x0000000F)
 154:Libraries/STM32F10x_StdPeriph_Driver/src/stm32f10x_rcc.c ****  #define CFGR2_PREDIV2            ((uint32_t)0x000000F0)
 155:Libraries/STM32F10x_StdPeriph_Driver/src/stm32f10x_rcc.c ****  #define CFGR2_PLL2MUL            ((uint32_t)0x00000F00)
 156:Libraries/STM32F10x_StdPeriph_Driver/src/stm32f10x_rcc.c ****  #define CFGR2_PLL3MUL            ((uint32_t)0x0000F000)
 157:Libraries/STM32F10x_StdPeriph_Driver/src/stm32f10x_rcc.c **** #endif /* STM32F10X_CL */ 
 158:Libraries/STM32F10x_StdPeriph_Driver/src/stm32f10x_rcc.c **** 
 159:Libraries/STM32F10x_StdPeriph_Driver/src/stm32f10x_rcc.c **** /* RCC Flag Mask */
 160:Libraries/STM32F10x_StdPeriph_Driver/src/stm32f10x_rcc.c **** #define FLAG_Mask                 ((uint8_t)0x1F)
 161:Libraries/STM32F10x_StdPeriph_Driver/src/stm32f10x_rcc.c **** 
 162:Libraries/STM32F10x_StdPeriph_Driver/src/stm32f10x_rcc.c **** #ifndef HSI_Value
 163:Libraries/STM32F10x_StdPeriph_Driver/src/stm32f10x_rcc.c **** /* Typical Value of the HSI in Hz */
 164:Libraries/STM32F10x_StdPeriph_Driver/src/stm32f10x_rcc.c ****  #define HSI_Value                 ((uint32_t)8000000)
 165:Libraries/STM32F10x_StdPeriph_Driver/src/stm32f10x_rcc.c **** #endif /* HSI_Value */
 166:Libraries/STM32F10x_StdPeriph_Driver/src/stm32f10x_rcc.c **** 
 167:Libraries/STM32F10x_StdPeriph_Driver/src/stm32f10x_rcc.c **** /* CIR register byte 2 (Bits[15:8]) base address */
 168:Libraries/STM32F10x_StdPeriph_Driver/src/stm32f10x_rcc.c **** #define CIR_BYTE2_ADDRESS         ((uint32_t)0x40021009)
 169:Libraries/STM32F10x_StdPeriph_Driver/src/stm32f10x_rcc.c **** 
 170:Libraries/STM32F10x_StdPeriph_Driver/src/stm32f10x_rcc.c **** /* CIR register byte 3 (Bits[23:16]) base address */
 171:Libraries/STM32F10x_StdPeriph_Driver/src/stm32f10x_rcc.c **** #define CIR_BYTE3_ADDRESS         ((uint32_t)0x4002100A)
 172:Libraries/STM32F10x_StdPeriph_Driver/src/stm32f10x_rcc.c **** 
 173:Libraries/STM32F10x_StdPeriph_Driver/src/stm32f10x_rcc.c **** /* CFGR register byte 4 (Bits[31:24]) base address */
 174:Libraries/STM32F10x_StdPeriph_Driver/src/stm32f10x_rcc.c **** #define CFGR_BYTE4_ADDRESS        ((uint32_t)0x40021007)
 175:Libraries/STM32F10x_StdPeriph_Driver/src/stm32f10x_rcc.c **** 
 176:Libraries/STM32F10x_StdPeriph_Driver/src/stm32f10x_rcc.c **** /* BDCR register base address */
 177:Libraries/STM32F10x_StdPeriph_Driver/src/stm32f10x_rcc.c **** #define BDCR_ADDRESS              (PERIPH_BASE + BDCR_OFFSET)
 178:Libraries/STM32F10x_StdPeriph_Driver/src/stm32f10x_rcc.c **** 
 179:Libraries/STM32F10x_StdPeriph_Driver/src/stm32f10x_rcc.c **** #ifndef HSEStartUp_TimeOut
 180:Libraries/STM32F10x_StdPeriph_Driver/src/stm32f10x_rcc.c **** /* Time out for HSE start up */
 181:Libraries/STM32F10x_StdPeriph_Driver/src/stm32f10x_rcc.c ****  #define HSEStartUp_TimeOut        ((uint16_t)0x0500)
 182:Libraries/STM32F10x_StdPeriph_Driver/src/stm32f10x_rcc.c **** #endif /* HSEStartUp_TimeOut */
 183:Libraries/STM32F10x_StdPeriph_Driver/src/stm32f10x_rcc.c **** 
 184:Libraries/STM32F10x_StdPeriph_Driver/src/stm32f10x_rcc.c **** /**
 185:Libraries/STM32F10x_StdPeriph_Driver/src/stm32f10x_rcc.c ****   * @}
 186:Libraries/STM32F10x_StdPeriph_Driver/src/stm32f10x_rcc.c ****   */ 
 187:Libraries/STM32F10x_StdPeriph_Driver/src/stm32f10x_rcc.c **** 
 188:Libraries/STM32F10x_StdPeriph_Driver/src/stm32f10x_rcc.c **** /** @defgroup RCC_Private_Macros
 189:Libraries/STM32F10x_StdPeriph_Driver/src/stm32f10x_rcc.c ****   * @{
 190:Libraries/STM32F10x_StdPeriph_Driver/src/stm32f10x_rcc.c ****   */ 
 191:Libraries/STM32F10x_StdPeriph_Driver/src/stm32f10x_rcc.c **** 
 192:Libraries/STM32F10x_StdPeriph_Driver/src/stm32f10x_rcc.c **** /**
 193:Libraries/STM32F10x_StdPeriph_Driver/src/stm32f10x_rcc.c ****   * @}
 194:Libraries/STM32F10x_StdPeriph_Driver/src/stm32f10x_rcc.c ****   */ 
 195:Libraries/STM32F10x_StdPeriph_Driver/src/stm32f10x_rcc.c **** 
 196:Libraries/STM32F10x_StdPeriph_Driver/src/stm32f10x_rcc.c **** /** @defgroup RCC_Private_Variables
 197:Libraries/STM32F10x_StdPeriph_Driver/src/stm32f10x_rcc.c ****   * @{
 198:Libraries/STM32F10x_StdPeriph_Driver/src/stm32f10x_rcc.c ****   */ 
 199:Libraries/STM32F10x_StdPeriph_Driver/src/stm32f10x_rcc.c **** 
 200:Libraries/STM32F10x_StdPeriph_Driver/src/stm32f10x_rcc.c **** static __I uint8_t APBAHBPrescTable[16] = {0, 0, 0, 0, 1, 2, 3, 4, 1, 2, 3, 4, 6, 7, 8, 9};
 201:Libraries/STM32F10x_StdPeriph_Driver/src/stm32f10x_rcc.c **** static __I uint8_t ADCPrescTable[4] = {2, 4, 6, 8};
 202:Libraries/STM32F10x_StdPeriph_Driver/src/stm32f10x_rcc.c **** 
 203:Libraries/STM32F10x_StdPeriph_Driver/src/stm32f10x_rcc.c **** /**
 204:Libraries/STM32F10x_StdPeriph_Driver/src/stm32f10x_rcc.c ****   * @}
 205:Libraries/STM32F10x_StdPeriph_Driver/src/stm32f10x_rcc.c ****   */
 206:Libraries/STM32F10x_StdPeriph_Driver/src/stm32f10x_rcc.c **** 
 207:Libraries/STM32F10x_StdPeriph_Driver/src/stm32f10x_rcc.c **** /** @defgroup RCC_Private_FunctionPrototypes
 208:Libraries/STM32F10x_StdPeriph_Driver/src/stm32f10x_rcc.c ****   * @{
 209:Libraries/STM32F10x_StdPeriph_Driver/src/stm32f10x_rcc.c ****   */
 210:Libraries/STM32F10x_StdPeriph_Driver/src/stm32f10x_rcc.c **** 
 211:Libraries/STM32F10x_StdPeriph_Driver/src/stm32f10x_rcc.c **** /**
 212:Libraries/STM32F10x_StdPeriph_Driver/src/stm32f10x_rcc.c ****   * @}
 213:Libraries/STM32F10x_StdPeriph_Driver/src/stm32f10x_rcc.c ****   */
 214:Libraries/STM32F10x_StdPeriph_Driver/src/stm32f10x_rcc.c **** 
 215:Libraries/STM32F10x_StdPeriph_Driver/src/stm32f10x_rcc.c **** /** @defgroup RCC_Private_Functions
 216:Libraries/STM32F10x_StdPeriph_Driver/src/stm32f10x_rcc.c ****   * @{
 217:Libraries/STM32F10x_StdPeriph_Driver/src/stm32f10x_rcc.c ****   */
 218:Libraries/STM32F10x_StdPeriph_Driver/src/stm32f10x_rcc.c **** 
 219:Libraries/STM32F10x_StdPeriph_Driver/src/stm32f10x_rcc.c **** /**
 220:Libraries/STM32F10x_StdPeriph_Driver/src/stm32f10x_rcc.c ****   * @brief  Resets the RCC clock configuration to the default reset state.
 221:Libraries/STM32F10x_StdPeriph_Driver/src/stm32f10x_rcc.c ****   * @param  None
 222:Libraries/STM32F10x_StdPeriph_Driver/src/stm32f10x_rcc.c ****   * @retval None
 223:Libraries/STM32F10x_StdPeriph_Driver/src/stm32f10x_rcc.c ****   */
 224:Libraries/STM32F10x_StdPeriph_Driver/src/stm32f10x_rcc.c **** void RCC_DeInit(void)
 225:Libraries/STM32F10x_StdPeriph_Driver/src/stm32f10x_rcc.c **** {
  27              		.loc 1 225 0
  28              		.cfi_startproc
  29              		@ args = 0, pretend = 0, frame = 0
  30              		@ frame_needed = 0, uses_anonymous_args = 0
  31              		@ link register save eliminated.
 226:Libraries/STM32F10x_StdPeriph_Driver/src/stm32f10x_rcc.c ****   /* Set HSION bit */
 227:Libraries/STM32F10x_StdPeriph_Driver/src/stm32f10x_rcc.c ****   RCC->CR |= (uint32_t)0x00000001;
 228:Libraries/STM32F10x_StdPeriph_Driver/src/stm32f10x_rcc.c **** 
 229:Libraries/STM32F10x_StdPeriph_Driver/src/stm32f10x_rcc.c ****   /* Reset SW, HPRE, PPRE1, PPRE2, ADCPRE and MCO bits */
 230:Libraries/STM32F10x_StdPeriph_Driver/src/stm32f10x_rcc.c **** #ifndef STM32F10X_CL
 231:Libraries/STM32F10x_StdPeriph_Driver/src/stm32f10x_rcc.c ****   RCC->CFGR &= (uint32_t)0xF8FF0000;
 232:Libraries/STM32F10x_StdPeriph_Driver/src/stm32f10x_rcc.c **** #else
 233:Libraries/STM32F10x_StdPeriph_Driver/src/stm32f10x_rcc.c ****   RCC->CFGR &= (uint32_t)0xF0FF0000;
 234:Libraries/STM32F10x_StdPeriph_Driver/src/stm32f10x_rcc.c **** #endif /* STM32F10X_CL */   
 235:Libraries/STM32F10x_StdPeriph_Driver/src/stm32f10x_rcc.c ****   
 236:Libraries/STM32F10x_StdPeriph_Driver/src/stm32f10x_rcc.c ****   /* Reset HSEON, CSSON and PLLON bits */
 237:Libraries/STM32F10x_StdPeriph_Driver/src/stm32f10x_rcc.c ****   RCC->CR &= (uint32_t)0xFEF6FFFF;
 238:Libraries/STM32F10x_StdPeriph_Driver/src/stm32f10x_rcc.c **** 
 239:Libraries/STM32F10x_StdPeriph_Driver/src/stm32f10x_rcc.c ****   /* Reset HSEBYP bit */
 240:Libraries/STM32F10x_StdPeriph_Driver/src/stm32f10x_rcc.c ****   RCC->CR &= (uint32_t)0xFFFBFFFF;
 241:Libraries/STM32F10x_StdPeriph_Driver/src/stm32f10x_rcc.c **** 
 242:Libraries/STM32F10x_StdPeriph_Driver/src/stm32f10x_rcc.c ****   /* Reset PLLSRC, PLLXTPRE, PLLMUL and USBPRE/OTGFSPRE bits */
 243:Libraries/STM32F10x_StdPeriph_Driver/src/stm32f10x_rcc.c ****   RCC->CFGR &= (uint32_t)0xFF80FFFF;
 244:Libraries/STM32F10x_StdPeriph_Driver/src/stm32f10x_rcc.c **** 
 245:Libraries/STM32F10x_StdPeriph_Driver/src/stm32f10x_rcc.c **** #ifndef STM32F10X_CL
 246:Libraries/STM32F10x_StdPeriph_Driver/src/stm32f10x_rcc.c ****   /* Disable all interrupts and clear pending bits  */
 247:Libraries/STM32F10x_StdPeriph_Driver/src/stm32f10x_rcc.c ****   RCC->CIR = 0x009F0000;
  32              		.loc 1 247 0
  33 0000 4FF41F00 		mov	r0, #10420224
 227:Libraries/STM32F10x_StdPeriph_Driver/src/stm32f10x_rcc.c **** 
  34              		.loc 1 227 0
  35 0004 0C4B     		ldr	r3, .L3
 231:Libraries/STM32F10x_StdPeriph_Driver/src/stm32f10x_rcc.c **** #else
  36              		.loc 1 231 0
  37 0006 0D4A     		ldr	r2, .L3+4
 227:Libraries/STM32F10x_StdPeriph_Driver/src/stm32f10x_rcc.c **** 
  38              		.loc 1 227 0
  39 0008 1968     		ldr	r1, [r3]
  40 000a 41F00101 		orr	r1, r1, #1
  41 000e 1960     		str	r1, [r3]
 231:Libraries/STM32F10x_StdPeriph_Driver/src/stm32f10x_rcc.c **** #else
  42              		.loc 1 231 0
  43 0010 5968     		ldr	r1, [r3, #4]
  44 0012 0A40     		ands	r2, r2, r1
  45 0014 5A60     		str	r2, [r3, #4]
 237:Libraries/STM32F10x_StdPeriph_Driver/src/stm32f10x_rcc.c **** 
  46              		.loc 1 237 0
  47 0016 1A68     		ldr	r2, [r3]
  48 0018 22F08472 		bic	r2, r2, #17301504
  49 001c 22F48032 		bic	r2, r2, #65536
  50 0020 1A60     		str	r2, [r3]
 240:Libraries/STM32F10x_StdPeriph_Driver/src/stm32f10x_rcc.c **** 
  51              		.loc 1 240 0
  52 0022 1A68     		ldr	r2, [r3]
  53 0024 22F48022 		bic	r2, r2, #262144
  54 0028 1A60     		str	r2, [r3]
 243:Libraries/STM32F10x_StdPeriph_Driver/src/stm32f10x_rcc.c **** 
  55              		.loc 1 243 0
  56 002a 5A68     		ldr	r2, [r3, #4]
  57 002c 22F4FE02 		bic	r2, r2, #8323072
  58 0030 5A60     		str	r2, [r3, #4]
  59              		.loc 1 247 0
  60 0032 9860     		str	r0, [r3, #8]
 248:Libraries/STM32F10x_StdPeriph_Driver/src/stm32f10x_rcc.c **** #else
 249:Libraries/STM32F10x_StdPeriph_Driver/src/stm32f10x_rcc.c ****   /* Reset PLL2ON and PLL3ON bits */
 250:Libraries/STM32F10x_StdPeriph_Driver/src/stm32f10x_rcc.c ****   RCC->CR &= (uint32_t)0xEBFFFFFF;
 251:Libraries/STM32F10x_StdPeriph_Driver/src/stm32f10x_rcc.c **** 
 252:Libraries/STM32F10x_StdPeriph_Driver/src/stm32f10x_rcc.c ****   /* Disable all interrupts and clear pending bits  */
 253:Libraries/STM32F10x_StdPeriph_Driver/src/stm32f10x_rcc.c ****   RCC->CIR = 0x00FF0000;
 254:Libraries/STM32F10x_StdPeriph_Driver/src/stm32f10x_rcc.c **** 
 255:Libraries/STM32F10x_StdPeriph_Driver/src/stm32f10x_rcc.c ****   /* Reset CFGR2 register */
 256:Libraries/STM32F10x_StdPeriph_Driver/src/stm32f10x_rcc.c ****   RCC->CFGR2 = 0x00000000;
 257:Libraries/STM32F10x_StdPeriph_Driver/src/stm32f10x_rcc.c **** #endif /* STM32F10X_CL */
 258:Libraries/STM32F10x_StdPeriph_Driver/src/stm32f10x_rcc.c **** }
  61              		.loc 1 258 0
  62 0034 7047     		bx	lr
  63              	.L4:
  64 0036 00BF     		.align	2
  65              	.L3:
  66 0038 00100240 		.word	1073876992
  67 003c 0000FFF8 		.word	-117506048
  68              		.cfi_endproc
  69              	.LFE27:
  71              		.section	.text.RCC_HSEConfig,"ax",%progbits
  72              		.align	1
  73              		.p2align 2,,3
  74              		.global	RCC_HSEConfig
  75              		.syntax unified
  76              		.thumb
  77              		.thumb_func
  78              		.fpu softvfp
  80              	RCC_HSEConfig:
  81              	.LFB28:
 259:Libraries/STM32F10x_StdPeriph_Driver/src/stm32f10x_rcc.c **** 
 260:Libraries/STM32F10x_StdPeriph_Driver/src/stm32f10x_rcc.c **** /**
 261:Libraries/STM32F10x_StdPeriph_Driver/src/stm32f10x_rcc.c ****   * @brief  Configures the External High Speed oscillator (HSE).
 262:Libraries/STM32F10x_StdPeriph_Driver/src/stm32f10x_rcc.c ****   * @note   HSE can not be stopped if it is used directly or through the PLL as system clock.
 263:Libraries/STM32F10x_StdPeriph_Driver/src/stm32f10x_rcc.c ****   * @param  RCC_HSE: specifies the new state of the HSE.
 264:Libraries/STM32F10x_StdPeriph_Driver/src/stm32f10x_rcc.c ****   *   This parameter can be one of the following values:
 265:Libraries/STM32F10x_StdPeriph_Driver/src/stm32f10x_rcc.c ****   *     @arg RCC_HSE_OFF: HSE oscillator OFF
 266:Libraries/STM32F10x_StdPeriph_Driver/src/stm32f10x_rcc.c ****   *     @arg RCC_HSE_ON: HSE oscillator ON
 267:Libraries/STM32F10x_StdPeriph_Driver/src/stm32f10x_rcc.c ****   *     @arg RCC_HSE_Bypass: HSE oscillator bypassed with external clock
 268:Libraries/STM32F10x_StdPeriph_Driver/src/stm32f10x_rcc.c ****   * @retval None
 269:Libraries/STM32F10x_StdPeriph_Driver/src/stm32f10x_rcc.c ****   */
 270:Libraries/STM32F10x_StdPeriph_Driver/src/stm32f10x_rcc.c **** void RCC_HSEConfig(uint32_t RCC_HSE)
 271:Libraries/STM32F10x_StdPeriph_Driver/src/stm32f10x_rcc.c **** {
  82              		.loc 1 271 0
  83              		.cfi_startproc
  84              		@ args = 0, pretend = 0, frame = 0
  85              		@ frame_needed = 0, uses_anonymous_args = 0
  86              		@ link register save eliminated.
  87              	.LVL0:
 272:Libraries/STM32F10x_StdPeriph_Driver/src/stm32f10x_rcc.c ****   /* Check the parameters */
 273:Libraries/STM32F10x_StdPeriph_Driver/src/stm32f10x_rcc.c ****   assert_param(IS_RCC_HSE(RCC_HSE));
 274:Libraries/STM32F10x_StdPeriph_Driver/src/stm32f10x_rcc.c ****   /* Reset HSEON and HSEBYP bits before configuring the HSE ------------------*/
 275:Libraries/STM32F10x_StdPeriph_Driver/src/stm32f10x_rcc.c ****   /* Reset HSEON bit */
 276:Libraries/STM32F10x_StdPeriph_Driver/src/stm32f10x_rcc.c ****   RCC->CR &= CR_HSEON_Reset;
  88              		.loc 1 276 0
  89 0000 0C4B     		ldr	r3, .L10
 277:Libraries/STM32F10x_StdPeriph_Driver/src/stm32f10x_rcc.c ****   /* Reset HSEBYP bit */
 278:Libraries/STM32F10x_StdPeriph_Driver/src/stm32f10x_rcc.c ****   RCC->CR &= CR_HSEBYP_Reset;
 279:Libraries/STM32F10x_StdPeriph_Driver/src/stm32f10x_rcc.c ****   /* Configure HSE (RCC_HSE_OFF is already covered by the code section above) */
 280:Libraries/STM32F10x_StdPeriph_Driver/src/stm32f10x_rcc.c ****   switch(RCC_HSE)
  90              		.loc 1 280 0
  91 0002 B0F5803F 		cmp	r0, #65536
 276:Libraries/STM32F10x_StdPeriph_Driver/src/stm32f10x_rcc.c ****   /* Reset HSEBYP bit */
  92              		.loc 1 276 0
  93 0006 1A68     		ldr	r2, [r3]
  94 0008 22F48032 		bic	r2, r2, #65536
  95 000c 1A60     		str	r2, [r3]
 278:Libraries/STM32F10x_StdPeriph_Driver/src/stm32f10x_rcc.c ****   /* Configure HSE (RCC_HSE_OFF is already covered by the code section above) */
  96              		.loc 1 278 0
  97 000e 1A68     		ldr	r2, [r3]
  98 0010 22F48022 		bic	r2, r2, #262144
  99 0014 1A60     		str	r2, [r3]
 100              		.loc 1 280 0
 101 0016 08D0     		beq	.L7
 102 0018 B0F5802F 		cmp	r0, #262144
 103 001c 04D1     		bne	.L9
 281:Libraries/STM32F10x_StdPeriph_Driver/src/stm32f10x_rcc.c ****   {
 282:Libraries/STM32F10x_StdPeriph_Driver/src/stm32f10x_rcc.c ****     case RCC_HSE_ON:
 283:Libraries/STM32F10x_StdPeriph_Driver/src/stm32f10x_rcc.c ****       /* Set HSEON bit */
 284:Libraries/STM32F10x_StdPeriph_Driver/src/stm32f10x_rcc.c ****       RCC->CR |= CR_HSEON_Set;
 285:Libraries/STM32F10x_StdPeriph_Driver/src/stm32f10x_rcc.c ****       break;
 286:Libraries/STM32F10x_StdPeriph_Driver/src/stm32f10x_rcc.c ****       
 287:Libraries/STM32F10x_StdPeriph_Driver/src/stm32f10x_rcc.c ****     case RCC_HSE_Bypass:
 288:Libraries/STM32F10x_StdPeriph_Driver/src/stm32f10x_rcc.c ****       /* Set HSEBYP and HSEON bits */
 289:Libraries/STM32F10x_StdPeriph_Driver/src/stm32f10x_rcc.c ****       RCC->CR |= CR_HSEBYP_Set | CR_HSEON_Set;
 104              		.loc 1 289 0
 105 001e 1A68     		ldr	r2, [r3]
 106 0020 42F4A022 		orr	r2, r2, #327680
 107 0024 1A60     		str	r2, [r3]
 290:Libraries/STM32F10x_StdPeriph_Driver/src/stm32f10x_rcc.c ****       break;
 291:Libraries/STM32F10x_StdPeriph_Driver/src/stm32f10x_rcc.c ****       
 292:Libraries/STM32F10x_StdPeriph_Driver/src/stm32f10x_rcc.c ****     default:
 293:Libraries/STM32F10x_StdPeriph_Driver/src/stm32f10x_rcc.c ****       break;
 294:Libraries/STM32F10x_StdPeriph_Driver/src/stm32f10x_rcc.c ****   }
 295:Libraries/STM32F10x_StdPeriph_Driver/src/stm32f10x_rcc.c **** }
 108              		.loc 1 295 0
 109 0026 7047     		bx	lr
 110              	.L9:
 111 0028 7047     		bx	lr
 112              	.L7:
 284:Libraries/STM32F10x_StdPeriph_Driver/src/stm32f10x_rcc.c ****       break;
 113              		.loc 1 284 0
 114 002a 1A68     		ldr	r2, [r3]
 115 002c 42F48032 		orr	r2, r2, #65536
 116 0030 1A60     		str	r2, [r3]
 285:Libraries/STM32F10x_StdPeriph_Driver/src/stm32f10x_rcc.c ****       
 117              		.loc 1 285 0
 118 0032 7047     		bx	lr
 119              	.L11:
 120              		.align	2
 121              	.L10:
 122 0034 00100240 		.word	1073876992
 123              		.cfi_endproc
 124              	.LFE28:
 126              		.section	.text.RCC_WaitForHSEStartUp,"ax",%progbits
 127              		.align	1
 128              		.p2align 2,,3
 129              		.global	RCC_WaitForHSEStartUp
 130              		.syntax unified
 131              		.thumb
 132              		.thumb_func
 133              		.fpu softvfp
 135              	RCC_WaitForHSEStartUp:
 136              	.LFB29:
 296:Libraries/STM32F10x_StdPeriph_Driver/src/stm32f10x_rcc.c **** 
 297:Libraries/STM32F10x_StdPeriph_Driver/src/stm32f10x_rcc.c **** /**
 298:Libraries/STM32F10x_StdPeriph_Driver/src/stm32f10x_rcc.c ****   * @brief  Waits for HSE start-up.
 299:Libraries/STM32F10x_StdPeriph_Driver/src/stm32f10x_rcc.c ****   * @param  None
 300:Libraries/STM32F10x_StdPeriph_Driver/src/stm32f10x_rcc.c ****   * @retval An ErrorStatus enumuration value:
 301:Libraries/STM32F10x_StdPeriph_Driver/src/stm32f10x_rcc.c ****   * - SUCCESS: HSE oscillator is stable and ready to use
 302:Libraries/STM32F10x_StdPeriph_Driver/src/stm32f10x_rcc.c ****   * - ERROR: HSE oscillator not yet ready
 303:Libraries/STM32F10x_StdPeriph_Driver/src/stm32f10x_rcc.c ****   */
 304:Libraries/STM32F10x_StdPeriph_Driver/src/stm32f10x_rcc.c **** ErrorStatus RCC_WaitForHSEStartUp(void)
 305:Libraries/STM32F10x_StdPeriph_Driver/src/stm32f10x_rcc.c **** {
 137              		.loc 1 305 0
 138              		.cfi_startproc
 139              		@ args = 0, pretend = 0, frame = 8
 140              		@ frame_needed = 0, uses_anonymous_args = 0
 141              		@ link register save eliminated.
 306:Libraries/STM32F10x_StdPeriph_Driver/src/stm32f10x_rcc.c ****   __IO uint32_t StartUpCounter = 0;
 142              		.loc 1 306 0
 143 0000 0023     		movs	r3, #0
 305:Libraries/STM32F10x_StdPeriph_Driver/src/stm32f10x_rcc.c ****   __IO uint32_t StartUpCounter = 0;
 144              		.loc 1 305 0
 145 0002 82B0     		sub	sp, sp, #8
 146              	.LCFI0:
 147              		.cfi_def_cfa_offset 8
 148              	.LBB6:
 149              	.LBB7:
 307:Libraries/STM32F10x_StdPeriph_Driver/src/stm32f10x_rcc.c ****   ErrorStatus status = ERROR;
 308:Libraries/STM32F10x_StdPeriph_Driver/src/stm32f10x_rcc.c ****   FlagStatus HSEStatus = RESET;
 309:Libraries/STM32F10x_StdPeriph_Driver/src/stm32f10x_rcc.c ****   
 310:Libraries/STM32F10x_StdPeriph_Driver/src/stm32f10x_rcc.c ****   /* Wait till HSE is ready and if Time out is reached exit */
 311:Libraries/STM32F10x_StdPeriph_Driver/src/stm32f10x_rcc.c ****   do
 312:Libraries/STM32F10x_StdPeriph_Driver/src/stm32f10x_rcc.c ****   {
 313:Libraries/STM32F10x_StdPeriph_Driver/src/stm32f10x_rcc.c ****     HSEStatus = RCC_GetFlagStatus(RCC_FLAG_HSERDY);
 314:Libraries/STM32F10x_StdPeriph_Driver/src/stm32f10x_rcc.c ****     StartUpCounter++;  
 315:Libraries/STM32F10x_StdPeriph_Driver/src/stm32f10x_rcc.c ****   } while((StartUpCounter != HSEStartUp_TimeOut) && (HSEStatus == RESET));
 316:Libraries/STM32F10x_StdPeriph_Driver/src/stm32f10x_rcc.c ****   
 317:Libraries/STM32F10x_StdPeriph_Driver/src/stm32f10x_rcc.c ****   if (RCC_GetFlagStatus(RCC_FLAG_HSERDY) != RESET)
 318:Libraries/STM32F10x_StdPeriph_Driver/src/stm32f10x_rcc.c ****   {
 319:Libraries/STM32F10x_StdPeriph_Driver/src/stm32f10x_rcc.c ****     status = SUCCESS;
 320:Libraries/STM32F10x_StdPeriph_Driver/src/stm32f10x_rcc.c ****   }
 321:Libraries/STM32F10x_StdPeriph_Driver/src/stm32f10x_rcc.c ****   else
 322:Libraries/STM32F10x_StdPeriph_Driver/src/stm32f10x_rcc.c ****   {
 323:Libraries/STM32F10x_StdPeriph_Driver/src/stm32f10x_rcc.c ****     status = ERROR;
 324:Libraries/STM32F10x_StdPeriph_Driver/src/stm32f10x_rcc.c ****   }  
 325:Libraries/STM32F10x_StdPeriph_Driver/src/stm32f10x_rcc.c ****   return (status);
 326:Libraries/STM32F10x_StdPeriph_Driver/src/stm32f10x_rcc.c **** }
 327:Libraries/STM32F10x_StdPeriph_Driver/src/stm32f10x_rcc.c **** 
 328:Libraries/STM32F10x_StdPeriph_Driver/src/stm32f10x_rcc.c **** /**
 329:Libraries/STM32F10x_StdPeriph_Driver/src/stm32f10x_rcc.c ****   * @brief  Adjusts the Internal High Speed oscillator (HSI) calibration value.
 330:Libraries/STM32F10x_StdPeriph_Driver/src/stm32f10x_rcc.c ****   * @param  HSICalibrationValue: specifies the calibration trimming value.
 331:Libraries/STM32F10x_StdPeriph_Driver/src/stm32f10x_rcc.c ****   *   This parameter must be a number between 0 and 0x1F.
 332:Libraries/STM32F10x_StdPeriph_Driver/src/stm32f10x_rcc.c ****   * @retval None
 333:Libraries/STM32F10x_StdPeriph_Driver/src/stm32f10x_rcc.c ****   */
 334:Libraries/STM32F10x_StdPeriph_Driver/src/stm32f10x_rcc.c **** void RCC_AdjustHSICalibrationValue(uint8_t HSICalibrationValue)
 335:Libraries/STM32F10x_StdPeriph_Driver/src/stm32f10x_rcc.c **** {
 336:Libraries/STM32F10x_StdPeriph_Driver/src/stm32f10x_rcc.c ****   uint32_t tmpreg = 0;
 337:Libraries/STM32F10x_StdPeriph_Driver/src/stm32f10x_rcc.c ****   /* Check the parameters */
 338:Libraries/STM32F10x_StdPeriph_Driver/src/stm32f10x_rcc.c ****   assert_param(IS_RCC_CALIBRATION_VALUE(HSICalibrationValue));
 339:Libraries/STM32F10x_StdPeriph_Driver/src/stm32f10x_rcc.c ****   tmpreg = RCC->CR;
 340:Libraries/STM32F10x_StdPeriph_Driver/src/stm32f10x_rcc.c ****   /* Clear HSITRIM[4:0] bits */
 341:Libraries/STM32F10x_StdPeriph_Driver/src/stm32f10x_rcc.c ****   tmpreg &= CR_HSITRIM_Mask;
 342:Libraries/STM32F10x_StdPeriph_Driver/src/stm32f10x_rcc.c ****   /* Set the HSITRIM[4:0] bits according to HSICalibrationValue value */
 343:Libraries/STM32F10x_StdPeriph_Driver/src/stm32f10x_rcc.c ****   tmpreg |= (uint32_t)HSICalibrationValue << 3;
 344:Libraries/STM32F10x_StdPeriph_Driver/src/stm32f10x_rcc.c ****   /* Store the new value */
 345:Libraries/STM32F10x_StdPeriph_Driver/src/stm32f10x_rcc.c ****   RCC->CR = tmpreg;
 346:Libraries/STM32F10x_StdPeriph_Driver/src/stm32f10x_rcc.c **** }
 347:Libraries/STM32F10x_StdPeriph_Driver/src/stm32f10x_rcc.c **** 
 348:Libraries/STM32F10x_StdPeriph_Driver/src/stm32f10x_rcc.c **** /**
 349:Libraries/STM32F10x_StdPeriph_Driver/src/stm32f10x_rcc.c ****   * @brief  Enables or disables the Internal High Speed oscillator (HSI).
 350:Libraries/STM32F10x_StdPeriph_Driver/src/stm32f10x_rcc.c ****   * @note   HSI can not be stopped if it is used directly or through the PLL as system clock.
 351:Libraries/STM32F10x_StdPeriph_Driver/src/stm32f10x_rcc.c ****   * @param  NewState: new state of the HSI. This parameter can be: ENABLE or DISABLE.
 352:Libraries/STM32F10x_StdPeriph_Driver/src/stm32f10x_rcc.c ****   * @retval None
 353:Libraries/STM32F10x_StdPeriph_Driver/src/stm32f10x_rcc.c ****   */
 354:Libraries/STM32F10x_StdPeriph_Driver/src/stm32f10x_rcc.c **** void RCC_HSICmd(FunctionalState NewState)
 355:Libraries/STM32F10x_StdPeriph_Driver/src/stm32f10x_rcc.c **** {
 356:Libraries/STM32F10x_StdPeriph_Driver/src/stm32f10x_rcc.c ****   /* Check the parameters */
 357:Libraries/STM32F10x_StdPeriph_Driver/src/stm32f10x_rcc.c ****   assert_param(IS_FUNCTIONAL_STATE(NewState));
 358:Libraries/STM32F10x_StdPeriph_Driver/src/stm32f10x_rcc.c ****   *(__IO uint32_t *) CR_HSION_BB = (uint32_t)NewState;
 359:Libraries/STM32F10x_StdPeriph_Driver/src/stm32f10x_rcc.c **** }
 360:Libraries/STM32F10x_StdPeriph_Driver/src/stm32f10x_rcc.c **** 
 361:Libraries/STM32F10x_StdPeriph_Driver/src/stm32f10x_rcc.c **** /**
 362:Libraries/STM32F10x_StdPeriph_Driver/src/stm32f10x_rcc.c ****   * @brief  Configures the PLL clock source and multiplication factor.
 363:Libraries/STM32F10x_StdPeriph_Driver/src/stm32f10x_rcc.c ****   * @note   This function must be used only when the PLL is disabled.
 364:Libraries/STM32F10x_StdPeriph_Driver/src/stm32f10x_rcc.c ****   * @param  RCC_PLLSource: specifies the PLL entry clock source.
 365:Libraries/STM32F10x_StdPeriph_Driver/src/stm32f10x_rcc.c ****   *   For @b STM32_Connectivity_line_devices, this parameter can be one of the
 366:Libraries/STM32F10x_StdPeriph_Driver/src/stm32f10x_rcc.c ****   *   following values:
 367:Libraries/STM32F10x_StdPeriph_Driver/src/stm32f10x_rcc.c ****   *     @arg RCC_PLLSource_HSI_Div2: HSI oscillator clock divided by 2 selected as PLL clock entry
 368:Libraries/STM32F10x_StdPeriph_Driver/src/stm32f10x_rcc.c ****   *     @arg RCC_PLLSource_PREDIV1: PREDIV1 clock selected as PLL clock entry
 369:Libraries/STM32F10x_StdPeriph_Driver/src/stm32f10x_rcc.c ****   *   For @b other_STM32_devices, this parameter can be one of the following values:
 370:Libraries/STM32F10x_StdPeriph_Driver/src/stm32f10x_rcc.c ****   *     @arg RCC_PLLSource_HSI_Div2: HSI oscillator clock divided by 2 selected as PLL clock entry
 371:Libraries/STM32F10x_StdPeriph_Driver/src/stm32f10x_rcc.c ****   *     @arg RCC_PLLSource_HSE_Div1: HSE oscillator clock selected as PLL clock entry
 372:Libraries/STM32F10x_StdPeriph_Driver/src/stm32f10x_rcc.c ****   *     @arg RCC_PLLSource_HSE_Div2: HSE oscillator clock divided by 2 selected as PLL clock entry 
 373:Libraries/STM32F10x_StdPeriph_Driver/src/stm32f10x_rcc.c ****   * @param  RCC_PLLMul: specifies the PLL multiplication factor.
 374:Libraries/STM32F10x_StdPeriph_Driver/src/stm32f10x_rcc.c ****   *   For @b STM32_Connectivity_line_devices, this parameter can be RCC_PLLMul_x where x:{[4,9], 6_
 375:Libraries/STM32F10x_StdPeriph_Driver/src/stm32f10x_rcc.c ****   *   For @b other_STM32_devices, this parameter can be RCC_PLLMul_x where x:[2,16]  
 376:Libraries/STM32F10x_StdPeriph_Driver/src/stm32f10x_rcc.c ****   * @retval None
 377:Libraries/STM32F10x_StdPeriph_Driver/src/stm32f10x_rcc.c ****   */
 378:Libraries/STM32F10x_StdPeriph_Driver/src/stm32f10x_rcc.c **** void RCC_PLLConfig(uint32_t RCC_PLLSource, uint32_t RCC_PLLMul)
 379:Libraries/STM32F10x_StdPeriph_Driver/src/stm32f10x_rcc.c **** {
 380:Libraries/STM32F10x_StdPeriph_Driver/src/stm32f10x_rcc.c ****   uint32_t tmpreg = 0;
 381:Libraries/STM32F10x_StdPeriph_Driver/src/stm32f10x_rcc.c **** 
 382:Libraries/STM32F10x_StdPeriph_Driver/src/stm32f10x_rcc.c ****   /* Check the parameters */
 383:Libraries/STM32F10x_StdPeriph_Driver/src/stm32f10x_rcc.c ****   assert_param(IS_RCC_PLL_SOURCE(RCC_PLLSource));
 384:Libraries/STM32F10x_StdPeriph_Driver/src/stm32f10x_rcc.c ****   assert_param(IS_RCC_PLL_MUL(RCC_PLLMul));
 385:Libraries/STM32F10x_StdPeriph_Driver/src/stm32f10x_rcc.c **** 
 386:Libraries/STM32F10x_StdPeriph_Driver/src/stm32f10x_rcc.c ****   tmpreg = RCC->CFGR;
 387:Libraries/STM32F10x_StdPeriph_Driver/src/stm32f10x_rcc.c ****   /* Clear PLLSRC, PLLXTPRE and PLLMUL[3:0] bits */
 388:Libraries/STM32F10x_StdPeriph_Driver/src/stm32f10x_rcc.c ****   tmpreg &= CFGR_PLL_Mask;
 389:Libraries/STM32F10x_StdPeriph_Driver/src/stm32f10x_rcc.c ****   /* Set the PLL configuration bits */
 390:Libraries/STM32F10x_StdPeriph_Driver/src/stm32f10x_rcc.c ****   tmpreg |= RCC_PLLSource | RCC_PLLMul;
 391:Libraries/STM32F10x_StdPeriph_Driver/src/stm32f10x_rcc.c ****   /* Store the new value */
 392:Libraries/STM32F10x_StdPeriph_Driver/src/stm32f10x_rcc.c ****   RCC->CFGR = tmpreg;
 393:Libraries/STM32F10x_StdPeriph_Driver/src/stm32f10x_rcc.c **** }
 394:Libraries/STM32F10x_StdPeriph_Driver/src/stm32f10x_rcc.c **** 
 395:Libraries/STM32F10x_StdPeriph_Driver/src/stm32f10x_rcc.c **** /**
 396:Libraries/STM32F10x_StdPeriph_Driver/src/stm32f10x_rcc.c ****   * @brief  Enables or disables the PLL.
 397:Libraries/STM32F10x_StdPeriph_Driver/src/stm32f10x_rcc.c ****   * @note   The PLL can not be disabled if it is used as system clock.
 398:Libraries/STM32F10x_StdPeriph_Driver/src/stm32f10x_rcc.c ****   * @param  NewState: new state of the PLL. This parameter can be: ENABLE or DISABLE.
 399:Libraries/STM32F10x_StdPeriph_Driver/src/stm32f10x_rcc.c ****   * @retval None
 400:Libraries/STM32F10x_StdPeriph_Driver/src/stm32f10x_rcc.c ****   */
 401:Libraries/STM32F10x_StdPeriph_Driver/src/stm32f10x_rcc.c **** void RCC_PLLCmd(FunctionalState NewState)
 402:Libraries/STM32F10x_StdPeriph_Driver/src/stm32f10x_rcc.c **** {
 403:Libraries/STM32F10x_StdPeriph_Driver/src/stm32f10x_rcc.c ****   /* Check the parameters */
 404:Libraries/STM32F10x_StdPeriph_Driver/src/stm32f10x_rcc.c ****   assert_param(IS_FUNCTIONAL_STATE(NewState));
 405:Libraries/STM32F10x_StdPeriph_Driver/src/stm32f10x_rcc.c **** 
 406:Libraries/STM32F10x_StdPeriph_Driver/src/stm32f10x_rcc.c ****   *(__IO uint32_t *) CR_PLLON_BB = (uint32_t)NewState;
 407:Libraries/STM32F10x_StdPeriph_Driver/src/stm32f10x_rcc.c **** }
 408:Libraries/STM32F10x_StdPeriph_Driver/src/stm32f10x_rcc.c **** 
 409:Libraries/STM32F10x_StdPeriph_Driver/src/stm32f10x_rcc.c **** #ifdef STM32F10X_CL
 410:Libraries/STM32F10x_StdPeriph_Driver/src/stm32f10x_rcc.c **** /**
 411:Libraries/STM32F10x_StdPeriph_Driver/src/stm32f10x_rcc.c ****   * @brief  Configures the PREDIV1 division factor.
 412:Libraries/STM32F10x_StdPeriph_Driver/src/stm32f10x_rcc.c ****   * @note 
 413:Libraries/STM32F10x_StdPeriph_Driver/src/stm32f10x_rcc.c ****   *   - This function must be used only when the PLL is disabled.
 414:Libraries/STM32F10x_StdPeriph_Driver/src/stm32f10x_rcc.c ****   *   - This function applies only to STM32 Connectivity line devices.
 415:Libraries/STM32F10x_StdPeriph_Driver/src/stm32f10x_rcc.c ****   * @param  RCC_PREDIV1_Source: specifies the PREDIV1 clock source.
 416:Libraries/STM32F10x_StdPeriph_Driver/src/stm32f10x_rcc.c ****   *   This parameter can be one of the following values:
 417:Libraries/STM32F10x_StdPeriph_Driver/src/stm32f10x_rcc.c ****   *     @arg RCC_PREDIV1_Source_HSE: HSE selected as PREDIV1 clock
 418:Libraries/STM32F10x_StdPeriph_Driver/src/stm32f10x_rcc.c ****   *     @arg RCC_PREDIV1_Source_PLL2: PLL2 selected as PREDIV1 clock
 419:Libraries/STM32F10x_StdPeriph_Driver/src/stm32f10x_rcc.c ****   * @param  RCC_PREDIV1_Div: specifies the PREDIV1 clock division factor.
 420:Libraries/STM32F10x_StdPeriph_Driver/src/stm32f10x_rcc.c ****   *   This parameter can be RCC_PREDIV1_Divx where x:[1,16]
 421:Libraries/STM32F10x_StdPeriph_Driver/src/stm32f10x_rcc.c ****   * @retval None
 422:Libraries/STM32F10x_StdPeriph_Driver/src/stm32f10x_rcc.c ****   */
 423:Libraries/STM32F10x_StdPeriph_Driver/src/stm32f10x_rcc.c **** void RCC_PREDIV1Config(uint32_t RCC_PREDIV1_Source, uint32_t RCC_PREDIV1_Div)
 424:Libraries/STM32F10x_StdPeriph_Driver/src/stm32f10x_rcc.c **** {
 425:Libraries/STM32F10x_StdPeriph_Driver/src/stm32f10x_rcc.c ****   uint32_t tmpreg = 0;
 426:Libraries/STM32F10x_StdPeriph_Driver/src/stm32f10x_rcc.c ****   
 427:Libraries/STM32F10x_StdPeriph_Driver/src/stm32f10x_rcc.c ****   /* Check the parameters */
 428:Libraries/STM32F10x_StdPeriph_Driver/src/stm32f10x_rcc.c ****   assert_param(IS_RCC_PREDIV1_SOURCE(RCC_PREDIV1_Source));
 429:Libraries/STM32F10x_StdPeriph_Driver/src/stm32f10x_rcc.c ****   assert_param(IS_RCC_PREDIV1(RCC_PREDIV1_Div));
 430:Libraries/STM32F10x_StdPeriph_Driver/src/stm32f10x_rcc.c **** 
 431:Libraries/STM32F10x_StdPeriph_Driver/src/stm32f10x_rcc.c ****   tmpreg = RCC->CFGR2;
 432:Libraries/STM32F10x_StdPeriph_Driver/src/stm32f10x_rcc.c ****   /* Clear PREDIV1[3:0] and PREDIV1SRC bits */
 433:Libraries/STM32F10x_StdPeriph_Driver/src/stm32f10x_rcc.c ****   tmpreg &= ~(CFGR2_PREDIV1 | CFGR2_PREDIV1SRC);
 434:Libraries/STM32F10x_StdPeriph_Driver/src/stm32f10x_rcc.c ****   /* Set the PREDIV1 clock source and division factor */
 435:Libraries/STM32F10x_StdPeriph_Driver/src/stm32f10x_rcc.c ****   tmpreg |= RCC_PREDIV1_Source | RCC_PREDIV1_Div ;
 436:Libraries/STM32F10x_StdPeriph_Driver/src/stm32f10x_rcc.c ****   /* Store the new value */
 437:Libraries/STM32F10x_StdPeriph_Driver/src/stm32f10x_rcc.c ****   RCC->CFGR2 = tmpreg;
 438:Libraries/STM32F10x_StdPeriph_Driver/src/stm32f10x_rcc.c **** }
 439:Libraries/STM32F10x_StdPeriph_Driver/src/stm32f10x_rcc.c **** 
 440:Libraries/STM32F10x_StdPeriph_Driver/src/stm32f10x_rcc.c **** 
 441:Libraries/STM32F10x_StdPeriph_Driver/src/stm32f10x_rcc.c **** /**
 442:Libraries/STM32F10x_StdPeriph_Driver/src/stm32f10x_rcc.c ****   * @brief  Configures the PREDIV2 division factor.
 443:Libraries/STM32F10x_StdPeriph_Driver/src/stm32f10x_rcc.c ****   * @note 
 444:Libraries/STM32F10x_StdPeriph_Driver/src/stm32f10x_rcc.c ****   *   - This function must be used only when both PLL2 and PLL3 are disabled.
 445:Libraries/STM32F10x_StdPeriph_Driver/src/stm32f10x_rcc.c ****   *   - This function applies only to STM32 Connectivity line devices.
 446:Libraries/STM32F10x_StdPeriph_Driver/src/stm32f10x_rcc.c ****   * @param  RCC_PREDIV2_Div: specifies the PREDIV2 clock division factor.
 447:Libraries/STM32F10x_StdPeriph_Driver/src/stm32f10x_rcc.c ****   *   This parameter can be RCC_PREDIV2_Divx where x:[1,16]
 448:Libraries/STM32F10x_StdPeriph_Driver/src/stm32f10x_rcc.c ****   * @retval None
 449:Libraries/STM32F10x_StdPeriph_Driver/src/stm32f10x_rcc.c ****   */
 450:Libraries/STM32F10x_StdPeriph_Driver/src/stm32f10x_rcc.c **** void RCC_PREDIV2Config(uint32_t RCC_PREDIV2_Div)
 451:Libraries/STM32F10x_StdPeriph_Driver/src/stm32f10x_rcc.c **** {
 452:Libraries/STM32F10x_StdPeriph_Driver/src/stm32f10x_rcc.c ****   uint32_t tmpreg = 0;
 453:Libraries/STM32F10x_StdPeriph_Driver/src/stm32f10x_rcc.c **** 
 454:Libraries/STM32F10x_StdPeriph_Driver/src/stm32f10x_rcc.c ****   /* Check the parameters */
 455:Libraries/STM32F10x_StdPeriph_Driver/src/stm32f10x_rcc.c ****   assert_param(IS_RCC_PREDIV2(RCC_PREDIV2_Div));
 456:Libraries/STM32F10x_StdPeriph_Driver/src/stm32f10x_rcc.c **** 
 457:Libraries/STM32F10x_StdPeriph_Driver/src/stm32f10x_rcc.c ****   tmpreg = RCC->CFGR2;
 458:Libraries/STM32F10x_StdPeriph_Driver/src/stm32f10x_rcc.c ****   /* Clear PREDIV2[3:0] bits */
 459:Libraries/STM32F10x_StdPeriph_Driver/src/stm32f10x_rcc.c ****   tmpreg &= ~CFGR2_PREDIV2;
 460:Libraries/STM32F10x_StdPeriph_Driver/src/stm32f10x_rcc.c ****   /* Set the PREDIV2 division factor */
 461:Libraries/STM32F10x_StdPeriph_Driver/src/stm32f10x_rcc.c ****   tmpreg |= RCC_PREDIV2_Div;
 462:Libraries/STM32F10x_StdPeriph_Driver/src/stm32f10x_rcc.c ****   /* Store the new value */
 463:Libraries/STM32F10x_StdPeriph_Driver/src/stm32f10x_rcc.c ****   RCC->CFGR2 = tmpreg;
 464:Libraries/STM32F10x_StdPeriph_Driver/src/stm32f10x_rcc.c **** }
 465:Libraries/STM32F10x_StdPeriph_Driver/src/stm32f10x_rcc.c **** 
 466:Libraries/STM32F10x_StdPeriph_Driver/src/stm32f10x_rcc.c **** /**
 467:Libraries/STM32F10x_StdPeriph_Driver/src/stm32f10x_rcc.c ****   * @brief  Configures the PLL2 multiplication factor.
 468:Libraries/STM32F10x_StdPeriph_Driver/src/stm32f10x_rcc.c ****   * @note
 469:Libraries/STM32F10x_StdPeriph_Driver/src/stm32f10x_rcc.c ****   *   - This function must be used only when the PLL2 is disabled.
 470:Libraries/STM32F10x_StdPeriph_Driver/src/stm32f10x_rcc.c ****   *   - This function applies only to STM32 Connectivity line devices.
 471:Libraries/STM32F10x_StdPeriph_Driver/src/stm32f10x_rcc.c ****   * @param  RCC_PLL2Mul: specifies the PLL2 multiplication factor.
 472:Libraries/STM32F10x_StdPeriph_Driver/src/stm32f10x_rcc.c ****   *   This parameter can be RCC_PLL2Mul_x where x:{[8,14], 16, 20}
 473:Libraries/STM32F10x_StdPeriph_Driver/src/stm32f10x_rcc.c ****   * @retval None
 474:Libraries/STM32F10x_StdPeriph_Driver/src/stm32f10x_rcc.c ****   */
 475:Libraries/STM32F10x_StdPeriph_Driver/src/stm32f10x_rcc.c **** void RCC_PLL2Config(uint32_t RCC_PLL2Mul)
 476:Libraries/STM32F10x_StdPeriph_Driver/src/stm32f10x_rcc.c **** {
 477:Libraries/STM32F10x_StdPeriph_Driver/src/stm32f10x_rcc.c ****   uint32_t tmpreg = 0;
 478:Libraries/STM32F10x_StdPeriph_Driver/src/stm32f10x_rcc.c **** 
 479:Libraries/STM32F10x_StdPeriph_Driver/src/stm32f10x_rcc.c ****   /* Check the parameters */
 480:Libraries/STM32F10x_StdPeriph_Driver/src/stm32f10x_rcc.c ****   assert_param(IS_RCC_PLL2_MUL(RCC_PLL2Mul));
 481:Libraries/STM32F10x_StdPeriph_Driver/src/stm32f10x_rcc.c **** 
 482:Libraries/STM32F10x_StdPeriph_Driver/src/stm32f10x_rcc.c ****   tmpreg = RCC->CFGR2;
 483:Libraries/STM32F10x_StdPeriph_Driver/src/stm32f10x_rcc.c ****   /* Clear PLL2Mul[3:0] bits */
 484:Libraries/STM32F10x_StdPeriph_Driver/src/stm32f10x_rcc.c ****   tmpreg &= ~CFGR2_PLL2MUL;
 485:Libraries/STM32F10x_StdPeriph_Driver/src/stm32f10x_rcc.c ****   /* Set the PLL2 configuration bits */
 486:Libraries/STM32F10x_StdPeriph_Driver/src/stm32f10x_rcc.c ****   tmpreg |= RCC_PLL2Mul;
 487:Libraries/STM32F10x_StdPeriph_Driver/src/stm32f10x_rcc.c ****   /* Store the new value */
 488:Libraries/STM32F10x_StdPeriph_Driver/src/stm32f10x_rcc.c ****   RCC->CFGR2 = tmpreg;
 489:Libraries/STM32F10x_StdPeriph_Driver/src/stm32f10x_rcc.c **** }
 490:Libraries/STM32F10x_StdPeriph_Driver/src/stm32f10x_rcc.c **** 
 491:Libraries/STM32F10x_StdPeriph_Driver/src/stm32f10x_rcc.c **** 
 492:Libraries/STM32F10x_StdPeriph_Driver/src/stm32f10x_rcc.c **** /**
 493:Libraries/STM32F10x_StdPeriph_Driver/src/stm32f10x_rcc.c ****   * @brief  Enables or disables the PLL2.
 494:Libraries/STM32F10x_StdPeriph_Driver/src/stm32f10x_rcc.c ****   * @note 
 495:Libraries/STM32F10x_StdPeriph_Driver/src/stm32f10x_rcc.c ****   *   - The PLL2 can not be disabled if it is used indirectly as system clock
 496:Libraries/STM32F10x_StdPeriph_Driver/src/stm32f10x_rcc.c ****   *     (i.e. it is used as PLL clock entry that is used as System clock).
 497:Libraries/STM32F10x_StdPeriph_Driver/src/stm32f10x_rcc.c ****   *   - This function applies only to STM32 Connectivity line devices.
 498:Libraries/STM32F10x_StdPeriph_Driver/src/stm32f10x_rcc.c ****   * @param  NewState: new state of the PLL2. This parameter can be: ENABLE or DISABLE.
 499:Libraries/STM32F10x_StdPeriph_Driver/src/stm32f10x_rcc.c ****   * @retval None
 500:Libraries/STM32F10x_StdPeriph_Driver/src/stm32f10x_rcc.c ****   */
 501:Libraries/STM32F10x_StdPeriph_Driver/src/stm32f10x_rcc.c **** void RCC_PLL2Cmd(FunctionalState NewState)
 502:Libraries/STM32F10x_StdPeriph_Driver/src/stm32f10x_rcc.c **** {
 503:Libraries/STM32F10x_StdPeriph_Driver/src/stm32f10x_rcc.c ****   /* Check the parameters */
 504:Libraries/STM32F10x_StdPeriph_Driver/src/stm32f10x_rcc.c ****   assert_param(IS_FUNCTIONAL_STATE(NewState));
 505:Libraries/STM32F10x_StdPeriph_Driver/src/stm32f10x_rcc.c **** 
 506:Libraries/STM32F10x_StdPeriph_Driver/src/stm32f10x_rcc.c ****   *(__IO uint32_t *) CR_PLL2ON_BB = (uint32_t)NewState;
 507:Libraries/STM32F10x_StdPeriph_Driver/src/stm32f10x_rcc.c **** }
 508:Libraries/STM32F10x_StdPeriph_Driver/src/stm32f10x_rcc.c **** 
 509:Libraries/STM32F10x_StdPeriph_Driver/src/stm32f10x_rcc.c **** 
 510:Libraries/STM32F10x_StdPeriph_Driver/src/stm32f10x_rcc.c **** /**
 511:Libraries/STM32F10x_StdPeriph_Driver/src/stm32f10x_rcc.c ****   * @brief  Configures the PLL3 multiplication factor.
 512:Libraries/STM32F10x_StdPeriph_Driver/src/stm32f10x_rcc.c ****   * @note 
 513:Libraries/STM32F10x_StdPeriph_Driver/src/stm32f10x_rcc.c ****   *   - This function must be used only when the PLL3 is disabled.
 514:Libraries/STM32F10x_StdPeriph_Driver/src/stm32f10x_rcc.c ****   *   - This function applies only to STM32 Connectivity line devices.
 515:Libraries/STM32F10x_StdPeriph_Driver/src/stm32f10x_rcc.c ****   * @param  RCC_PLL3Mul: specifies the PLL3 multiplication factor.
 516:Libraries/STM32F10x_StdPeriph_Driver/src/stm32f10x_rcc.c ****   *   This parameter can be RCC_PLL3Mul_x where x:{[8,14], 16, 20}
 517:Libraries/STM32F10x_StdPeriph_Driver/src/stm32f10x_rcc.c ****   * @retval None
 518:Libraries/STM32F10x_StdPeriph_Driver/src/stm32f10x_rcc.c ****   */
 519:Libraries/STM32F10x_StdPeriph_Driver/src/stm32f10x_rcc.c **** void RCC_PLL3Config(uint32_t RCC_PLL3Mul)
 520:Libraries/STM32F10x_StdPeriph_Driver/src/stm32f10x_rcc.c **** {
 521:Libraries/STM32F10x_StdPeriph_Driver/src/stm32f10x_rcc.c ****   uint32_t tmpreg = 0;
 522:Libraries/STM32F10x_StdPeriph_Driver/src/stm32f10x_rcc.c **** 
 523:Libraries/STM32F10x_StdPeriph_Driver/src/stm32f10x_rcc.c ****   /* Check the parameters */
 524:Libraries/STM32F10x_StdPeriph_Driver/src/stm32f10x_rcc.c ****   assert_param(IS_RCC_PLL3_MUL(RCC_PLL3Mul));
 525:Libraries/STM32F10x_StdPeriph_Driver/src/stm32f10x_rcc.c **** 
 526:Libraries/STM32F10x_StdPeriph_Driver/src/stm32f10x_rcc.c ****   tmpreg = RCC->CFGR2;
 527:Libraries/STM32F10x_StdPeriph_Driver/src/stm32f10x_rcc.c ****   /* Clear PLL3Mul[3:0] bits */
 528:Libraries/STM32F10x_StdPeriph_Driver/src/stm32f10x_rcc.c ****   tmpreg &= ~CFGR2_PLL3MUL;
 529:Libraries/STM32F10x_StdPeriph_Driver/src/stm32f10x_rcc.c ****   /* Set the PLL3 configuration bits */
 530:Libraries/STM32F10x_StdPeriph_Driver/src/stm32f10x_rcc.c ****   tmpreg |= RCC_PLL3Mul;
 531:Libraries/STM32F10x_StdPeriph_Driver/src/stm32f10x_rcc.c ****   /* Store the new value */
 532:Libraries/STM32F10x_StdPeriph_Driver/src/stm32f10x_rcc.c ****   RCC->CFGR2 = tmpreg;
 533:Libraries/STM32F10x_StdPeriph_Driver/src/stm32f10x_rcc.c **** }
 534:Libraries/STM32F10x_StdPeriph_Driver/src/stm32f10x_rcc.c **** 
 535:Libraries/STM32F10x_StdPeriph_Driver/src/stm32f10x_rcc.c **** 
 536:Libraries/STM32F10x_StdPeriph_Driver/src/stm32f10x_rcc.c **** /**
 537:Libraries/STM32F10x_StdPeriph_Driver/src/stm32f10x_rcc.c ****   * @brief  Enables or disables the PLL3.
 538:Libraries/STM32F10x_StdPeriph_Driver/src/stm32f10x_rcc.c ****   * @note   This function applies only to STM32 Connectivity line devices.
 539:Libraries/STM32F10x_StdPeriph_Driver/src/stm32f10x_rcc.c ****   * @param  NewState: new state of the PLL3. This parameter can be: ENABLE or DISABLE.
 540:Libraries/STM32F10x_StdPeriph_Driver/src/stm32f10x_rcc.c ****   * @retval None
 541:Libraries/STM32F10x_StdPeriph_Driver/src/stm32f10x_rcc.c ****   */
 542:Libraries/STM32F10x_StdPeriph_Driver/src/stm32f10x_rcc.c **** void RCC_PLL3Cmd(FunctionalState NewState)
 543:Libraries/STM32F10x_StdPeriph_Driver/src/stm32f10x_rcc.c **** {
 544:Libraries/STM32F10x_StdPeriph_Driver/src/stm32f10x_rcc.c ****   /* Check the parameters */
 545:Libraries/STM32F10x_StdPeriph_Driver/src/stm32f10x_rcc.c **** 
 546:Libraries/STM32F10x_StdPeriph_Driver/src/stm32f10x_rcc.c ****   assert_param(IS_FUNCTIONAL_STATE(NewState));
 547:Libraries/STM32F10x_StdPeriph_Driver/src/stm32f10x_rcc.c ****   *(__IO uint32_t *) CR_PLL3ON_BB = (uint32_t)NewState;
 548:Libraries/STM32F10x_StdPeriph_Driver/src/stm32f10x_rcc.c **** }
 549:Libraries/STM32F10x_StdPeriph_Driver/src/stm32f10x_rcc.c **** #endif /* STM32F10X_CL */
 550:Libraries/STM32F10x_StdPeriph_Driver/src/stm32f10x_rcc.c **** 
 551:Libraries/STM32F10x_StdPeriph_Driver/src/stm32f10x_rcc.c **** /**
 552:Libraries/STM32F10x_StdPeriph_Driver/src/stm32f10x_rcc.c ****   * @brief  Configures the system clock (SYSCLK).
 553:Libraries/STM32F10x_StdPeriph_Driver/src/stm32f10x_rcc.c ****   * @param  RCC_SYSCLKSource: specifies the clock source used as system clock.
 554:Libraries/STM32F10x_StdPeriph_Driver/src/stm32f10x_rcc.c ****   *   This parameter can be one of the following values:
 555:Libraries/STM32F10x_StdPeriph_Driver/src/stm32f10x_rcc.c ****   *     @arg RCC_SYSCLKSource_HSI: HSI selected as system clock
 556:Libraries/STM32F10x_StdPeriph_Driver/src/stm32f10x_rcc.c ****   *     @arg RCC_SYSCLKSource_HSE: HSE selected as system clock
 557:Libraries/STM32F10x_StdPeriph_Driver/src/stm32f10x_rcc.c ****   *     @arg RCC_SYSCLKSource_PLLCLK: PLL selected as system clock
 558:Libraries/STM32F10x_StdPeriph_Driver/src/stm32f10x_rcc.c ****   * @retval None
 559:Libraries/STM32F10x_StdPeriph_Driver/src/stm32f10x_rcc.c ****   */
 560:Libraries/STM32F10x_StdPeriph_Driver/src/stm32f10x_rcc.c **** void RCC_SYSCLKConfig(uint32_t RCC_SYSCLKSource)
 561:Libraries/STM32F10x_StdPeriph_Driver/src/stm32f10x_rcc.c **** {
 562:Libraries/STM32F10x_StdPeriph_Driver/src/stm32f10x_rcc.c ****   uint32_t tmpreg = 0;
 563:Libraries/STM32F10x_StdPeriph_Driver/src/stm32f10x_rcc.c ****   /* Check the parameters */
 564:Libraries/STM32F10x_StdPeriph_Driver/src/stm32f10x_rcc.c ****   assert_param(IS_RCC_SYSCLK_SOURCE(RCC_SYSCLKSource));
 565:Libraries/STM32F10x_StdPeriph_Driver/src/stm32f10x_rcc.c ****   tmpreg = RCC->CFGR;
 566:Libraries/STM32F10x_StdPeriph_Driver/src/stm32f10x_rcc.c ****   /* Clear SW[1:0] bits */
 567:Libraries/STM32F10x_StdPeriph_Driver/src/stm32f10x_rcc.c ****   tmpreg &= CFGR_SW_Mask;
 568:Libraries/STM32F10x_StdPeriph_Driver/src/stm32f10x_rcc.c ****   /* Set SW[1:0] bits according to RCC_SYSCLKSource value */
 569:Libraries/STM32F10x_StdPeriph_Driver/src/stm32f10x_rcc.c ****   tmpreg |= RCC_SYSCLKSource;
 570:Libraries/STM32F10x_StdPeriph_Driver/src/stm32f10x_rcc.c ****   /* Store the new value */
 571:Libraries/STM32F10x_StdPeriph_Driver/src/stm32f10x_rcc.c ****   RCC->CFGR = tmpreg;
 572:Libraries/STM32F10x_StdPeriph_Driver/src/stm32f10x_rcc.c **** }
 573:Libraries/STM32F10x_StdPeriph_Driver/src/stm32f10x_rcc.c **** 
 574:Libraries/STM32F10x_StdPeriph_Driver/src/stm32f10x_rcc.c **** /**
 575:Libraries/STM32F10x_StdPeriph_Driver/src/stm32f10x_rcc.c ****   * @brief  Returns the clock source used as system clock.
 576:Libraries/STM32F10x_StdPeriph_Driver/src/stm32f10x_rcc.c ****   * @param  None
 577:Libraries/STM32F10x_StdPeriph_Driver/src/stm32f10x_rcc.c ****   * @retval The clock source used as system clock. The returned value can
 578:Libraries/STM32F10x_StdPeriph_Driver/src/stm32f10x_rcc.c ****   *   be one of the following:
 579:Libraries/STM32F10x_StdPeriph_Driver/src/stm32f10x_rcc.c ****   *     - 0x00: HSI used as system clock
 580:Libraries/STM32F10x_StdPeriph_Driver/src/stm32f10x_rcc.c ****   *     - 0x04: HSE used as system clock
 581:Libraries/STM32F10x_StdPeriph_Driver/src/stm32f10x_rcc.c ****   *     - 0x08: PLL used as system clock
 582:Libraries/STM32F10x_StdPeriph_Driver/src/stm32f10x_rcc.c ****   */
 583:Libraries/STM32F10x_StdPeriph_Driver/src/stm32f10x_rcc.c **** uint8_t RCC_GetSYSCLKSource(void)
 584:Libraries/STM32F10x_StdPeriph_Driver/src/stm32f10x_rcc.c **** {
 585:Libraries/STM32F10x_StdPeriph_Driver/src/stm32f10x_rcc.c ****   return ((uint8_t)(RCC->CFGR & CFGR_SWS_Mask));
 586:Libraries/STM32F10x_StdPeriph_Driver/src/stm32f10x_rcc.c **** }
 587:Libraries/STM32F10x_StdPeriph_Driver/src/stm32f10x_rcc.c **** 
 588:Libraries/STM32F10x_StdPeriph_Driver/src/stm32f10x_rcc.c **** /**
 589:Libraries/STM32F10x_StdPeriph_Driver/src/stm32f10x_rcc.c ****   * @brief  Configures the AHB clock (HCLK).
 590:Libraries/STM32F10x_StdPeriph_Driver/src/stm32f10x_rcc.c ****   * @param  RCC_SYSCLK: defines the AHB clock divider. This clock is derived from 
 591:Libraries/STM32F10x_StdPeriph_Driver/src/stm32f10x_rcc.c ****   *   the system clock (SYSCLK).
 592:Libraries/STM32F10x_StdPeriph_Driver/src/stm32f10x_rcc.c ****   *   This parameter can be one of the following values:
 593:Libraries/STM32F10x_StdPeriph_Driver/src/stm32f10x_rcc.c ****   *     @arg RCC_SYSCLK_Div1: AHB clock = SYSCLK
 594:Libraries/STM32F10x_StdPeriph_Driver/src/stm32f10x_rcc.c ****   *     @arg RCC_SYSCLK_Div2: AHB clock = SYSCLK/2
 595:Libraries/STM32F10x_StdPeriph_Driver/src/stm32f10x_rcc.c ****   *     @arg RCC_SYSCLK_Div4: AHB clock = SYSCLK/4
 596:Libraries/STM32F10x_StdPeriph_Driver/src/stm32f10x_rcc.c ****   *     @arg RCC_SYSCLK_Div8: AHB clock = SYSCLK/8
 597:Libraries/STM32F10x_StdPeriph_Driver/src/stm32f10x_rcc.c ****   *     @arg RCC_SYSCLK_Div16: AHB clock = SYSCLK/16
 598:Libraries/STM32F10x_StdPeriph_Driver/src/stm32f10x_rcc.c ****   *     @arg RCC_SYSCLK_Div64: AHB clock = SYSCLK/64
 599:Libraries/STM32F10x_StdPeriph_Driver/src/stm32f10x_rcc.c ****   *     @arg RCC_SYSCLK_Div128: AHB clock = SYSCLK/128
 600:Libraries/STM32F10x_StdPeriph_Driver/src/stm32f10x_rcc.c ****   *     @arg RCC_SYSCLK_Div256: AHB clock = SYSCLK/256
 601:Libraries/STM32F10x_StdPeriph_Driver/src/stm32f10x_rcc.c ****   *     @arg RCC_SYSCLK_Div512: AHB clock = SYSCLK/512
 602:Libraries/STM32F10x_StdPeriph_Driver/src/stm32f10x_rcc.c ****   * @retval None
 603:Libraries/STM32F10x_StdPeriph_Driver/src/stm32f10x_rcc.c ****   */
 604:Libraries/STM32F10x_StdPeriph_Driver/src/stm32f10x_rcc.c **** void RCC_HCLKConfig(uint32_t RCC_SYSCLK)
 605:Libraries/STM32F10x_StdPeriph_Driver/src/stm32f10x_rcc.c **** {
 606:Libraries/STM32F10x_StdPeriph_Driver/src/stm32f10x_rcc.c ****   uint32_t tmpreg = 0;
 607:Libraries/STM32F10x_StdPeriph_Driver/src/stm32f10x_rcc.c ****   /* Check the parameters */
 608:Libraries/STM32F10x_StdPeriph_Driver/src/stm32f10x_rcc.c ****   assert_param(IS_RCC_HCLK(RCC_SYSCLK));
 609:Libraries/STM32F10x_StdPeriph_Driver/src/stm32f10x_rcc.c ****   tmpreg = RCC->CFGR;
 610:Libraries/STM32F10x_StdPeriph_Driver/src/stm32f10x_rcc.c ****   /* Clear HPRE[3:0] bits */
 611:Libraries/STM32F10x_StdPeriph_Driver/src/stm32f10x_rcc.c ****   tmpreg &= CFGR_HPRE_Reset_Mask;
 612:Libraries/STM32F10x_StdPeriph_Driver/src/stm32f10x_rcc.c ****   /* Set HPRE[3:0] bits according to RCC_SYSCLK value */
 613:Libraries/STM32F10x_StdPeriph_Driver/src/stm32f10x_rcc.c ****   tmpreg |= RCC_SYSCLK;
 614:Libraries/STM32F10x_StdPeriph_Driver/src/stm32f10x_rcc.c ****   /* Store the new value */
 615:Libraries/STM32F10x_StdPeriph_Driver/src/stm32f10x_rcc.c ****   RCC->CFGR = tmpreg;
 616:Libraries/STM32F10x_StdPeriph_Driver/src/stm32f10x_rcc.c **** }
 617:Libraries/STM32F10x_StdPeriph_Driver/src/stm32f10x_rcc.c **** 
 618:Libraries/STM32F10x_StdPeriph_Driver/src/stm32f10x_rcc.c **** /**
 619:Libraries/STM32F10x_StdPeriph_Driver/src/stm32f10x_rcc.c ****   * @brief  Configures the Low Speed APB clock (PCLK1).
 620:Libraries/STM32F10x_StdPeriph_Driver/src/stm32f10x_rcc.c ****   * @param  RCC_HCLK: defines the APB1 clock divider. This clock is derived from 
 621:Libraries/STM32F10x_StdPeriph_Driver/src/stm32f10x_rcc.c ****   *   the AHB clock (HCLK).
 622:Libraries/STM32F10x_StdPeriph_Driver/src/stm32f10x_rcc.c ****   *   This parameter can be one of the following values:
 623:Libraries/STM32F10x_StdPeriph_Driver/src/stm32f10x_rcc.c ****   *     @arg RCC_HCLK_Div1: APB1 clock = HCLK
 624:Libraries/STM32F10x_StdPeriph_Driver/src/stm32f10x_rcc.c ****   *     @arg RCC_HCLK_Div2: APB1 clock = HCLK/2
 625:Libraries/STM32F10x_StdPeriph_Driver/src/stm32f10x_rcc.c ****   *     @arg RCC_HCLK_Div4: APB1 clock = HCLK/4
 626:Libraries/STM32F10x_StdPeriph_Driver/src/stm32f10x_rcc.c ****   *     @arg RCC_HCLK_Div8: APB1 clock = HCLK/8
 627:Libraries/STM32F10x_StdPeriph_Driver/src/stm32f10x_rcc.c ****   *     @arg RCC_HCLK_Div16: APB1 clock = HCLK/16
 628:Libraries/STM32F10x_StdPeriph_Driver/src/stm32f10x_rcc.c ****   * @retval None
 629:Libraries/STM32F10x_StdPeriph_Driver/src/stm32f10x_rcc.c ****   */
 630:Libraries/STM32F10x_StdPeriph_Driver/src/stm32f10x_rcc.c **** void RCC_PCLK1Config(uint32_t RCC_HCLK)
 631:Libraries/STM32F10x_StdPeriph_Driver/src/stm32f10x_rcc.c **** {
 632:Libraries/STM32F10x_StdPeriph_Driver/src/stm32f10x_rcc.c ****   uint32_t tmpreg = 0;
 633:Libraries/STM32F10x_StdPeriph_Driver/src/stm32f10x_rcc.c ****   /* Check the parameters */
 634:Libraries/STM32F10x_StdPeriph_Driver/src/stm32f10x_rcc.c ****   assert_param(IS_RCC_PCLK(RCC_HCLK));
 635:Libraries/STM32F10x_StdPeriph_Driver/src/stm32f10x_rcc.c ****   tmpreg = RCC->CFGR;
 636:Libraries/STM32F10x_StdPeriph_Driver/src/stm32f10x_rcc.c ****   /* Clear PPRE1[2:0] bits */
 637:Libraries/STM32F10x_StdPeriph_Driver/src/stm32f10x_rcc.c ****   tmpreg &= CFGR_PPRE1_Reset_Mask;
 638:Libraries/STM32F10x_StdPeriph_Driver/src/stm32f10x_rcc.c ****   /* Set PPRE1[2:0] bits according to RCC_HCLK value */
 639:Libraries/STM32F10x_StdPeriph_Driver/src/stm32f10x_rcc.c ****   tmpreg |= RCC_HCLK;
 640:Libraries/STM32F10x_StdPeriph_Driver/src/stm32f10x_rcc.c ****   /* Store the new value */
 641:Libraries/STM32F10x_StdPeriph_Driver/src/stm32f10x_rcc.c ****   RCC->CFGR = tmpreg;
 642:Libraries/STM32F10x_StdPeriph_Driver/src/stm32f10x_rcc.c **** }
 643:Libraries/STM32F10x_StdPeriph_Driver/src/stm32f10x_rcc.c **** 
 644:Libraries/STM32F10x_StdPeriph_Driver/src/stm32f10x_rcc.c **** /**
 645:Libraries/STM32F10x_StdPeriph_Driver/src/stm32f10x_rcc.c ****   * @brief  Configures the High Speed APB clock (PCLK2).
 646:Libraries/STM32F10x_StdPeriph_Driver/src/stm32f10x_rcc.c ****   * @param  RCC_HCLK: defines the APB2 clock divider. This clock is derived from 
 647:Libraries/STM32F10x_StdPeriph_Driver/src/stm32f10x_rcc.c ****   *   the AHB clock (HCLK).
 648:Libraries/STM32F10x_StdPeriph_Driver/src/stm32f10x_rcc.c ****   *   This parameter can be one of the following values:
 649:Libraries/STM32F10x_StdPeriph_Driver/src/stm32f10x_rcc.c ****   *     @arg RCC_HCLK_Div1: APB2 clock = HCLK
 650:Libraries/STM32F10x_StdPeriph_Driver/src/stm32f10x_rcc.c ****   *     @arg RCC_HCLK_Div2: APB2 clock = HCLK/2
 651:Libraries/STM32F10x_StdPeriph_Driver/src/stm32f10x_rcc.c ****   *     @arg RCC_HCLK_Div4: APB2 clock = HCLK/4
 652:Libraries/STM32F10x_StdPeriph_Driver/src/stm32f10x_rcc.c ****   *     @arg RCC_HCLK_Div8: APB2 clock = HCLK/8
 653:Libraries/STM32F10x_StdPeriph_Driver/src/stm32f10x_rcc.c ****   *     @arg RCC_HCLK_Div16: APB2 clock = HCLK/16
 654:Libraries/STM32F10x_StdPeriph_Driver/src/stm32f10x_rcc.c ****   * @retval None
 655:Libraries/STM32F10x_StdPeriph_Driver/src/stm32f10x_rcc.c ****   */
 656:Libraries/STM32F10x_StdPeriph_Driver/src/stm32f10x_rcc.c **** void RCC_PCLK2Config(uint32_t RCC_HCLK)
 657:Libraries/STM32F10x_StdPeriph_Driver/src/stm32f10x_rcc.c **** {
 658:Libraries/STM32F10x_StdPeriph_Driver/src/stm32f10x_rcc.c ****   uint32_t tmpreg = 0;
 659:Libraries/STM32F10x_StdPeriph_Driver/src/stm32f10x_rcc.c ****   /* Check the parameters */
 660:Libraries/STM32F10x_StdPeriph_Driver/src/stm32f10x_rcc.c ****   assert_param(IS_RCC_PCLK(RCC_HCLK));
 661:Libraries/STM32F10x_StdPeriph_Driver/src/stm32f10x_rcc.c ****   tmpreg = RCC->CFGR;
 662:Libraries/STM32F10x_StdPeriph_Driver/src/stm32f10x_rcc.c ****   /* Clear PPRE2[2:0] bits */
 663:Libraries/STM32F10x_StdPeriph_Driver/src/stm32f10x_rcc.c ****   tmpreg &= CFGR_PPRE2_Reset_Mask;
 664:Libraries/STM32F10x_StdPeriph_Driver/src/stm32f10x_rcc.c ****   /* Set PPRE2[2:0] bits according to RCC_HCLK value */
 665:Libraries/STM32F10x_StdPeriph_Driver/src/stm32f10x_rcc.c ****   tmpreg |= RCC_HCLK << 3;
 666:Libraries/STM32F10x_StdPeriph_Driver/src/stm32f10x_rcc.c ****   /* Store the new value */
 667:Libraries/STM32F10x_StdPeriph_Driver/src/stm32f10x_rcc.c ****   RCC->CFGR = tmpreg;
 668:Libraries/STM32F10x_StdPeriph_Driver/src/stm32f10x_rcc.c **** }
 669:Libraries/STM32F10x_StdPeriph_Driver/src/stm32f10x_rcc.c **** 
 670:Libraries/STM32F10x_StdPeriph_Driver/src/stm32f10x_rcc.c **** /**
 671:Libraries/STM32F10x_StdPeriph_Driver/src/stm32f10x_rcc.c ****   * @brief  Enables or disables the specified RCC interrupts.
 672:Libraries/STM32F10x_StdPeriph_Driver/src/stm32f10x_rcc.c ****   * @param  RCC_IT: specifies the RCC interrupt sources to be enabled or disabled.
 673:Libraries/STM32F10x_StdPeriph_Driver/src/stm32f10x_rcc.c ****   * 
 674:Libraries/STM32F10x_StdPeriph_Driver/src/stm32f10x_rcc.c ****   *   For @b STM32_Connectivity_line_devices, this parameter can be any combination
 675:Libraries/STM32F10x_StdPeriph_Driver/src/stm32f10x_rcc.c ****   *   of the following values        
 676:Libraries/STM32F10x_StdPeriph_Driver/src/stm32f10x_rcc.c ****   *     @arg RCC_IT_LSIRDY: LSI ready interrupt
 677:Libraries/STM32F10x_StdPeriph_Driver/src/stm32f10x_rcc.c ****   *     @arg RCC_IT_LSERDY: LSE ready interrupt
 678:Libraries/STM32F10x_StdPeriph_Driver/src/stm32f10x_rcc.c ****   *     @arg RCC_IT_HSIRDY: HSI ready interrupt
 679:Libraries/STM32F10x_StdPeriph_Driver/src/stm32f10x_rcc.c ****   *     @arg RCC_IT_HSERDY: HSE ready interrupt
 680:Libraries/STM32F10x_StdPeriph_Driver/src/stm32f10x_rcc.c ****   *     @arg RCC_IT_PLLRDY: PLL ready interrupt
 681:Libraries/STM32F10x_StdPeriph_Driver/src/stm32f10x_rcc.c ****   *     @arg RCC_IT_PLL2RDY: PLL2 ready interrupt
 682:Libraries/STM32F10x_StdPeriph_Driver/src/stm32f10x_rcc.c ****   *     @arg RCC_IT_PLL3RDY: PLL3 ready interrupt
 683:Libraries/STM32F10x_StdPeriph_Driver/src/stm32f10x_rcc.c ****   * 
 684:Libraries/STM32F10x_StdPeriph_Driver/src/stm32f10x_rcc.c ****   *   For @b other_STM32_devices, this parameter can be any combination of the 
 685:Libraries/STM32F10x_StdPeriph_Driver/src/stm32f10x_rcc.c ****   *   following values        
 686:Libraries/STM32F10x_StdPeriph_Driver/src/stm32f10x_rcc.c ****   *     @arg RCC_IT_LSIRDY: LSI ready interrupt
 687:Libraries/STM32F10x_StdPeriph_Driver/src/stm32f10x_rcc.c ****   *     @arg RCC_IT_LSERDY: LSE ready interrupt
 688:Libraries/STM32F10x_StdPeriph_Driver/src/stm32f10x_rcc.c ****   *     @arg RCC_IT_HSIRDY: HSI ready interrupt
 689:Libraries/STM32F10x_StdPeriph_Driver/src/stm32f10x_rcc.c ****   *     @arg RCC_IT_HSERDY: HSE ready interrupt
 690:Libraries/STM32F10x_StdPeriph_Driver/src/stm32f10x_rcc.c ****   *     @arg RCC_IT_PLLRDY: PLL ready interrupt
 691:Libraries/STM32F10x_StdPeriph_Driver/src/stm32f10x_rcc.c ****   *       
 692:Libraries/STM32F10x_StdPeriph_Driver/src/stm32f10x_rcc.c ****   * @param  NewState: new state of the specified RCC interrupts.
 693:Libraries/STM32F10x_StdPeriph_Driver/src/stm32f10x_rcc.c ****   *   This parameter can be: ENABLE or DISABLE.
 694:Libraries/STM32F10x_StdPeriph_Driver/src/stm32f10x_rcc.c ****   * @retval None
 695:Libraries/STM32F10x_StdPeriph_Driver/src/stm32f10x_rcc.c ****   */
 696:Libraries/STM32F10x_StdPeriph_Driver/src/stm32f10x_rcc.c **** void RCC_ITConfig(uint8_t RCC_IT, FunctionalState NewState)
 697:Libraries/STM32F10x_StdPeriph_Driver/src/stm32f10x_rcc.c **** {
 698:Libraries/STM32F10x_StdPeriph_Driver/src/stm32f10x_rcc.c ****   /* Check the parameters */
 699:Libraries/STM32F10x_StdPeriph_Driver/src/stm32f10x_rcc.c ****   assert_param(IS_RCC_IT(RCC_IT));
 700:Libraries/STM32F10x_StdPeriph_Driver/src/stm32f10x_rcc.c ****   assert_param(IS_FUNCTIONAL_STATE(NewState));
 701:Libraries/STM32F10x_StdPeriph_Driver/src/stm32f10x_rcc.c ****   if (NewState != DISABLE)
 702:Libraries/STM32F10x_StdPeriph_Driver/src/stm32f10x_rcc.c ****   {
 703:Libraries/STM32F10x_StdPeriph_Driver/src/stm32f10x_rcc.c ****     /* Perform Byte access to RCC_CIR bits to enable the selected interrupts */
 704:Libraries/STM32F10x_StdPeriph_Driver/src/stm32f10x_rcc.c ****     *(__IO uint8_t *) CIR_BYTE2_ADDRESS |= RCC_IT;
 705:Libraries/STM32F10x_StdPeriph_Driver/src/stm32f10x_rcc.c ****   }
 706:Libraries/STM32F10x_StdPeriph_Driver/src/stm32f10x_rcc.c ****   else
 707:Libraries/STM32F10x_StdPeriph_Driver/src/stm32f10x_rcc.c ****   {
 708:Libraries/STM32F10x_StdPeriph_Driver/src/stm32f10x_rcc.c ****     /* Perform Byte access to RCC_CIR bits to disable the selected interrupts */
 709:Libraries/STM32F10x_StdPeriph_Driver/src/stm32f10x_rcc.c ****     *(__IO uint8_t *) CIR_BYTE2_ADDRESS &= (uint8_t)~RCC_IT;
 710:Libraries/STM32F10x_StdPeriph_Driver/src/stm32f10x_rcc.c ****   }
 711:Libraries/STM32F10x_StdPeriph_Driver/src/stm32f10x_rcc.c **** }
 712:Libraries/STM32F10x_StdPeriph_Driver/src/stm32f10x_rcc.c **** 
 713:Libraries/STM32F10x_StdPeriph_Driver/src/stm32f10x_rcc.c **** #ifndef STM32F10X_CL
 714:Libraries/STM32F10x_StdPeriph_Driver/src/stm32f10x_rcc.c **** /**
 715:Libraries/STM32F10x_StdPeriph_Driver/src/stm32f10x_rcc.c ****   * @brief  Configures the USB clock (USBCLK).
 716:Libraries/STM32F10x_StdPeriph_Driver/src/stm32f10x_rcc.c ****   * @param  RCC_USBCLKSource: specifies the USB clock source. This clock is 
 717:Libraries/STM32F10x_StdPeriph_Driver/src/stm32f10x_rcc.c ****   *   derived from the PLL output.
 718:Libraries/STM32F10x_StdPeriph_Driver/src/stm32f10x_rcc.c ****   *   This parameter can be one of the following values:
 719:Libraries/STM32F10x_StdPeriph_Driver/src/stm32f10x_rcc.c ****   *     @arg RCC_USBCLKSource_PLLCLK_1Div5: PLL clock divided by 1,5 selected as USB 
 720:Libraries/STM32F10x_StdPeriph_Driver/src/stm32f10x_rcc.c ****   *                                     clock source
 721:Libraries/STM32F10x_StdPeriph_Driver/src/stm32f10x_rcc.c ****   *     @arg RCC_USBCLKSource_PLLCLK_Div1: PLL clock selected as USB clock source
 722:Libraries/STM32F10x_StdPeriph_Driver/src/stm32f10x_rcc.c ****   * @retval None
 723:Libraries/STM32F10x_StdPeriph_Driver/src/stm32f10x_rcc.c ****   */
 724:Libraries/STM32F10x_StdPeriph_Driver/src/stm32f10x_rcc.c **** void RCC_USBCLKConfig(uint32_t RCC_USBCLKSource)
 725:Libraries/STM32F10x_StdPeriph_Driver/src/stm32f10x_rcc.c **** {
 726:Libraries/STM32F10x_StdPeriph_Driver/src/stm32f10x_rcc.c ****   /* Check the parameters */
 727:Libraries/STM32F10x_StdPeriph_Driver/src/stm32f10x_rcc.c ****   assert_param(IS_RCC_USBCLK_SOURCE(RCC_USBCLKSource));
 728:Libraries/STM32F10x_StdPeriph_Driver/src/stm32f10x_rcc.c **** 
 729:Libraries/STM32F10x_StdPeriph_Driver/src/stm32f10x_rcc.c ****   *(__IO uint32_t *) CFGR_USBPRE_BB = RCC_USBCLKSource;
 730:Libraries/STM32F10x_StdPeriph_Driver/src/stm32f10x_rcc.c **** }
 731:Libraries/STM32F10x_StdPeriph_Driver/src/stm32f10x_rcc.c **** #else
 732:Libraries/STM32F10x_StdPeriph_Driver/src/stm32f10x_rcc.c **** /**
 733:Libraries/STM32F10x_StdPeriph_Driver/src/stm32f10x_rcc.c ****   * @brief  Configures the USB OTG FS clock (OTGFSCLK).
 734:Libraries/STM32F10x_StdPeriph_Driver/src/stm32f10x_rcc.c ****   *   This function applies only to STM32 Connectivity line devices.
 735:Libraries/STM32F10x_StdPeriph_Driver/src/stm32f10x_rcc.c ****   * @param  RCC_OTGFSCLKSource: specifies the USB OTG FS clock source.
 736:Libraries/STM32F10x_StdPeriph_Driver/src/stm32f10x_rcc.c ****   *   This clock is derived from the PLL output.
 737:Libraries/STM32F10x_StdPeriph_Driver/src/stm32f10x_rcc.c ****   *   This parameter can be one of the following values:
 738:Libraries/STM32F10x_StdPeriph_Driver/src/stm32f10x_rcc.c ****   *     @arg  RCC_OTGFSCLKSource_PLLVCO_Div3: PLL VCO clock divided by 2 selected as USB OTG FS clo
 739:Libraries/STM32F10x_StdPeriph_Driver/src/stm32f10x_rcc.c ****   *     @arg  RCC_OTGFSCLKSource_PLLVCO_Div2: PLL VCO clock divided by 2 selected as USB OTG FS clo
 740:Libraries/STM32F10x_StdPeriph_Driver/src/stm32f10x_rcc.c ****   * @retval None
 741:Libraries/STM32F10x_StdPeriph_Driver/src/stm32f10x_rcc.c ****   */
 742:Libraries/STM32F10x_StdPeriph_Driver/src/stm32f10x_rcc.c **** void RCC_OTGFSCLKConfig(uint32_t RCC_OTGFSCLKSource)
 743:Libraries/STM32F10x_StdPeriph_Driver/src/stm32f10x_rcc.c **** {
 744:Libraries/STM32F10x_StdPeriph_Driver/src/stm32f10x_rcc.c ****   /* Check the parameters */
 745:Libraries/STM32F10x_StdPeriph_Driver/src/stm32f10x_rcc.c ****   assert_param(IS_RCC_OTGFSCLK_SOURCE(RCC_OTGFSCLKSource));
 746:Libraries/STM32F10x_StdPeriph_Driver/src/stm32f10x_rcc.c **** 
 747:Libraries/STM32F10x_StdPeriph_Driver/src/stm32f10x_rcc.c ****   *(__IO uint32_t *) CFGR_OTGFSPRE_BB = RCC_OTGFSCLKSource;
 748:Libraries/STM32F10x_StdPeriph_Driver/src/stm32f10x_rcc.c **** }
 749:Libraries/STM32F10x_StdPeriph_Driver/src/stm32f10x_rcc.c **** #endif /* STM32F10X_CL */ 
 750:Libraries/STM32F10x_StdPeriph_Driver/src/stm32f10x_rcc.c **** 
 751:Libraries/STM32F10x_StdPeriph_Driver/src/stm32f10x_rcc.c **** /**
 752:Libraries/STM32F10x_StdPeriph_Driver/src/stm32f10x_rcc.c ****   * @brief  Configures the ADC clock (ADCCLK).
 753:Libraries/STM32F10x_StdPeriph_Driver/src/stm32f10x_rcc.c ****   * @param  RCC_PCLK2: defines the ADC clock divider. This clock is derived from 
 754:Libraries/STM32F10x_StdPeriph_Driver/src/stm32f10x_rcc.c ****   *   the APB2 clock (PCLK2).
 755:Libraries/STM32F10x_StdPeriph_Driver/src/stm32f10x_rcc.c ****   *   This parameter can be one of the following values:
 756:Libraries/STM32F10x_StdPeriph_Driver/src/stm32f10x_rcc.c ****   *     @arg RCC_PCLK2_Div2: ADC clock = PCLK2/2
 757:Libraries/STM32F10x_StdPeriph_Driver/src/stm32f10x_rcc.c ****   *     @arg RCC_PCLK2_Div4: ADC clock = PCLK2/4
 758:Libraries/STM32F10x_StdPeriph_Driver/src/stm32f10x_rcc.c ****   *     @arg RCC_PCLK2_Div6: ADC clock = PCLK2/6
 759:Libraries/STM32F10x_StdPeriph_Driver/src/stm32f10x_rcc.c ****   *     @arg RCC_PCLK2_Div8: ADC clock = PCLK2/8
 760:Libraries/STM32F10x_StdPeriph_Driver/src/stm32f10x_rcc.c ****   * @retval None
 761:Libraries/STM32F10x_StdPeriph_Driver/src/stm32f10x_rcc.c ****   */
 762:Libraries/STM32F10x_StdPeriph_Driver/src/stm32f10x_rcc.c **** void RCC_ADCCLKConfig(uint32_t RCC_PCLK2)
 763:Libraries/STM32F10x_StdPeriph_Driver/src/stm32f10x_rcc.c **** {
 764:Libraries/STM32F10x_StdPeriph_Driver/src/stm32f10x_rcc.c ****   uint32_t tmpreg = 0;
 765:Libraries/STM32F10x_StdPeriph_Driver/src/stm32f10x_rcc.c ****   /* Check the parameters */
 766:Libraries/STM32F10x_StdPeriph_Driver/src/stm32f10x_rcc.c ****   assert_param(IS_RCC_ADCCLK(RCC_PCLK2));
 767:Libraries/STM32F10x_StdPeriph_Driver/src/stm32f10x_rcc.c ****   tmpreg = RCC->CFGR;
 768:Libraries/STM32F10x_StdPeriph_Driver/src/stm32f10x_rcc.c ****   /* Clear ADCPRE[1:0] bits */
 769:Libraries/STM32F10x_StdPeriph_Driver/src/stm32f10x_rcc.c ****   tmpreg &= CFGR_ADCPRE_Reset_Mask;
 770:Libraries/STM32F10x_StdPeriph_Driver/src/stm32f10x_rcc.c ****   /* Set ADCPRE[1:0] bits according to RCC_PCLK2 value */
 771:Libraries/STM32F10x_StdPeriph_Driver/src/stm32f10x_rcc.c ****   tmpreg |= RCC_PCLK2;
 772:Libraries/STM32F10x_StdPeriph_Driver/src/stm32f10x_rcc.c ****   /* Store the new value */
 773:Libraries/STM32F10x_StdPeriph_Driver/src/stm32f10x_rcc.c ****   RCC->CFGR = tmpreg;
 774:Libraries/STM32F10x_StdPeriph_Driver/src/stm32f10x_rcc.c **** }
 775:Libraries/STM32F10x_StdPeriph_Driver/src/stm32f10x_rcc.c **** 
 776:Libraries/STM32F10x_StdPeriph_Driver/src/stm32f10x_rcc.c **** #ifdef STM32F10X_CL
 777:Libraries/STM32F10x_StdPeriph_Driver/src/stm32f10x_rcc.c **** /**
 778:Libraries/STM32F10x_StdPeriph_Driver/src/stm32f10x_rcc.c ****   * @brief  Configures the I2S2 clock source(I2S2CLK).
 779:Libraries/STM32F10x_StdPeriph_Driver/src/stm32f10x_rcc.c ****   * @note
 780:Libraries/STM32F10x_StdPeriph_Driver/src/stm32f10x_rcc.c ****   *   - This function must be called before enabling I2S2 APB clock.
 781:Libraries/STM32F10x_StdPeriph_Driver/src/stm32f10x_rcc.c ****   *   - This function applies only to STM32 Connectivity line devices.
 782:Libraries/STM32F10x_StdPeriph_Driver/src/stm32f10x_rcc.c ****   * @param  RCC_I2S2CLKSource: specifies the I2S2 clock source.
 783:Libraries/STM32F10x_StdPeriph_Driver/src/stm32f10x_rcc.c ****   *   This parameter can be one of the following values:
 784:Libraries/STM32F10x_StdPeriph_Driver/src/stm32f10x_rcc.c ****   *     @arg RCC_I2S2CLKSource_SYSCLK: system clock selected as I2S2 clock entry
 785:Libraries/STM32F10x_StdPeriph_Driver/src/stm32f10x_rcc.c ****   *     @arg RCC_I2S2CLKSource_PLL3_VCO: PLL3 VCO clock selected as I2S2 clock entry
 786:Libraries/STM32F10x_StdPeriph_Driver/src/stm32f10x_rcc.c ****   * @retval None
 787:Libraries/STM32F10x_StdPeriph_Driver/src/stm32f10x_rcc.c ****   */
 788:Libraries/STM32F10x_StdPeriph_Driver/src/stm32f10x_rcc.c **** void RCC_I2S2CLKConfig(uint32_t RCC_I2S2CLKSource)
 789:Libraries/STM32F10x_StdPeriph_Driver/src/stm32f10x_rcc.c **** {
 790:Libraries/STM32F10x_StdPeriph_Driver/src/stm32f10x_rcc.c ****   /* Check the parameters */
 791:Libraries/STM32F10x_StdPeriph_Driver/src/stm32f10x_rcc.c ****   assert_param(IS_RCC_I2S2CLK_SOURCE(RCC_I2S2CLKSource));
 792:Libraries/STM32F10x_StdPeriph_Driver/src/stm32f10x_rcc.c **** 
 793:Libraries/STM32F10x_StdPeriph_Driver/src/stm32f10x_rcc.c ****   *(__IO uint32_t *) CFGR2_I2S2SRC_BB = RCC_I2S2CLKSource;
 794:Libraries/STM32F10x_StdPeriph_Driver/src/stm32f10x_rcc.c **** }
 795:Libraries/STM32F10x_StdPeriph_Driver/src/stm32f10x_rcc.c **** 
 796:Libraries/STM32F10x_StdPeriph_Driver/src/stm32f10x_rcc.c **** /**
 797:Libraries/STM32F10x_StdPeriph_Driver/src/stm32f10x_rcc.c ****   * @brief  Configures the I2S3 clock source(I2S2CLK).
 798:Libraries/STM32F10x_StdPeriph_Driver/src/stm32f10x_rcc.c ****   * @note
 799:Libraries/STM32F10x_StdPeriph_Driver/src/stm32f10x_rcc.c ****   *   - This function must be called before enabling I2S3 APB clock.
 800:Libraries/STM32F10x_StdPeriph_Driver/src/stm32f10x_rcc.c ****   *   - This function applies only to STM32 Connectivity line devices.
 801:Libraries/STM32F10x_StdPeriph_Driver/src/stm32f10x_rcc.c ****   * @param  RCC_I2S3CLKSource: specifies the I2S3 clock source.
 802:Libraries/STM32F10x_StdPeriph_Driver/src/stm32f10x_rcc.c ****   *   This parameter can be one of the following values:
 803:Libraries/STM32F10x_StdPeriph_Driver/src/stm32f10x_rcc.c ****   *     @arg RCC_I2S3CLKSource_SYSCLK: system clock selected as I2S3 clock entry
 804:Libraries/STM32F10x_StdPeriph_Driver/src/stm32f10x_rcc.c ****   *     @arg RCC_I2S3CLKSource_PLL3_VCO: PLL3 VCO clock selected as I2S3 clock entry
 805:Libraries/STM32F10x_StdPeriph_Driver/src/stm32f10x_rcc.c ****   * @retval None
 806:Libraries/STM32F10x_StdPeriph_Driver/src/stm32f10x_rcc.c ****   */
 807:Libraries/STM32F10x_StdPeriph_Driver/src/stm32f10x_rcc.c **** void RCC_I2S3CLKConfig(uint32_t RCC_I2S3CLKSource)
 808:Libraries/STM32F10x_StdPeriph_Driver/src/stm32f10x_rcc.c **** {
 809:Libraries/STM32F10x_StdPeriph_Driver/src/stm32f10x_rcc.c ****   /* Check the parameters */
 810:Libraries/STM32F10x_StdPeriph_Driver/src/stm32f10x_rcc.c ****   assert_param(IS_RCC_I2S3CLK_SOURCE(RCC_I2S3CLKSource));
 811:Libraries/STM32F10x_StdPeriph_Driver/src/stm32f10x_rcc.c **** 
 812:Libraries/STM32F10x_StdPeriph_Driver/src/stm32f10x_rcc.c ****   *(__IO uint32_t *) CFGR2_I2S3SRC_BB = RCC_I2S3CLKSource;
 813:Libraries/STM32F10x_StdPeriph_Driver/src/stm32f10x_rcc.c **** }
 814:Libraries/STM32F10x_StdPeriph_Driver/src/stm32f10x_rcc.c **** #endif /* STM32F10X_CL */
 815:Libraries/STM32F10x_StdPeriph_Driver/src/stm32f10x_rcc.c **** 
 816:Libraries/STM32F10x_StdPeriph_Driver/src/stm32f10x_rcc.c **** /**
 817:Libraries/STM32F10x_StdPeriph_Driver/src/stm32f10x_rcc.c ****   * @brief  Configures the External Low Speed oscillator (LSE).
 818:Libraries/STM32F10x_StdPeriph_Driver/src/stm32f10x_rcc.c ****   * @param  RCC_LSE: specifies the new state of the LSE.
 819:Libraries/STM32F10x_StdPeriph_Driver/src/stm32f10x_rcc.c ****   *   This parameter can be one of the following values:
 820:Libraries/STM32F10x_StdPeriph_Driver/src/stm32f10x_rcc.c ****   *     @arg RCC_LSE_OFF: LSE oscillator OFF
 821:Libraries/STM32F10x_StdPeriph_Driver/src/stm32f10x_rcc.c ****   *     @arg RCC_LSE_ON: LSE oscillator ON
 822:Libraries/STM32F10x_StdPeriph_Driver/src/stm32f10x_rcc.c ****   *     @arg RCC_LSE_Bypass: LSE oscillator bypassed with external clock
 823:Libraries/STM32F10x_StdPeriph_Driver/src/stm32f10x_rcc.c ****   * @retval None
 824:Libraries/STM32F10x_StdPeriph_Driver/src/stm32f10x_rcc.c ****   */
 825:Libraries/STM32F10x_StdPeriph_Driver/src/stm32f10x_rcc.c **** void RCC_LSEConfig(uint8_t RCC_LSE)
 826:Libraries/STM32F10x_StdPeriph_Driver/src/stm32f10x_rcc.c **** {
 827:Libraries/STM32F10x_StdPeriph_Driver/src/stm32f10x_rcc.c ****   /* Check the parameters */
 828:Libraries/STM32F10x_StdPeriph_Driver/src/stm32f10x_rcc.c ****   assert_param(IS_RCC_LSE(RCC_LSE));
 829:Libraries/STM32F10x_StdPeriph_Driver/src/stm32f10x_rcc.c ****   /* Reset LSEON and LSEBYP bits before configuring the LSE ------------------*/
 830:Libraries/STM32F10x_StdPeriph_Driver/src/stm32f10x_rcc.c ****   /* Reset LSEON bit */
 831:Libraries/STM32F10x_StdPeriph_Driver/src/stm32f10x_rcc.c ****   *(__IO uint8_t *) BDCR_ADDRESS = RCC_LSE_OFF;
 832:Libraries/STM32F10x_StdPeriph_Driver/src/stm32f10x_rcc.c ****   /* Reset LSEBYP bit */
 833:Libraries/STM32F10x_StdPeriph_Driver/src/stm32f10x_rcc.c ****   *(__IO uint8_t *) BDCR_ADDRESS = RCC_LSE_OFF;
 834:Libraries/STM32F10x_StdPeriph_Driver/src/stm32f10x_rcc.c ****   /* Configure LSE (RCC_LSE_OFF is already covered by the code section above) */
 835:Libraries/STM32F10x_StdPeriph_Driver/src/stm32f10x_rcc.c ****   switch(RCC_LSE)
 836:Libraries/STM32F10x_StdPeriph_Driver/src/stm32f10x_rcc.c ****   {
 837:Libraries/STM32F10x_StdPeriph_Driver/src/stm32f10x_rcc.c ****     case RCC_LSE_ON:
 838:Libraries/STM32F10x_StdPeriph_Driver/src/stm32f10x_rcc.c ****       /* Set LSEON bit */
 839:Libraries/STM32F10x_StdPeriph_Driver/src/stm32f10x_rcc.c ****       *(__IO uint8_t *) BDCR_ADDRESS = RCC_LSE_ON;
 840:Libraries/STM32F10x_StdPeriph_Driver/src/stm32f10x_rcc.c ****       break;
 841:Libraries/STM32F10x_StdPeriph_Driver/src/stm32f10x_rcc.c ****       
 842:Libraries/STM32F10x_StdPeriph_Driver/src/stm32f10x_rcc.c ****     case RCC_LSE_Bypass:
 843:Libraries/STM32F10x_StdPeriph_Driver/src/stm32f10x_rcc.c ****       /* Set LSEBYP and LSEON bits */
 844:Libraries/STM32F10x_StdPeriph_Driver/src/stm32f10x_rcc.c ****       *(__IO uint8_t *) BDCR_ADDRESS = RCC_LSE_Bypass | RCC_LSE_ON;
 845:Libraries/STM32F10x_StdPeriph_Driver/src/stm32f10x_rcc.c ****       break;            
 846:Libraries/STM32F10x_StdPeriph_Driver/src/stm32f10x_rcc.c ****       
 847:Libraries/STM32F10x_StdPeriph_Driver/src/stm32f10x_rcc.c ****     default:
 848:Libraries/STM32F10x_StdPeriph_Driver/src/stm32f10x_rcc.c ****       break;      
 849:Libraries/STM32F10x_StdPeriph_Driver/src/stm32f10x_rcc.c ****   }
 850:Libraries/STM32F10x_StdPeriph_Driver/src/stm32f10x_rcc.c **** }
 851:Libraries/STM32F10x_StdPeriph_Driver/src/stm32f10x_rcc.c **** 
 852:Libraries/STM32F10x_StdPeriph_Driver/src/stm32f10x_rcc.c **** /**
 853:Libraries/STM32F10x_StdPeriph_Driver/src/stm32f10x_rcc.c ****   * @brief  Enables or disables the Internal Low Speed oscillator (LSI).
 854:Libraries/STM32F10x_StdPeriph_Driver/src/stm32f10x_rcc.c ****   * @note   LSI can not be disabled if the IWDG is running.
 855:Libraries/STM32F10x_StdPeriph_Driver/src/stm32f10x_rcc.c ****   * @param  NewState: new state of the LSI. This parameter can be: ENABLE or DISABLE.
 856:Libraries/STM32F10x_StdPeriph_Driver/src/stm32f10x_rcc.c ****   * @retval None
 857:Libraries/STM32F10x_StdPeriph_Driver/src/stm32f10x_rcc.c ****   */
 858:Libraries/STM32F10x_StdPeriph_Driver/src/stm32f10x_rcc.c **** void RCC_LSICmd(FunctionalState NewState)
 859:Libraries/STM32F10x_StdPeriph_Driver/src/stm32f10x_rcc.c **** {
 860:Libraries/STM32F10x_StdPeriph_Driver/src/stm32f10x_rcc.c ****   /* Check the parameters */
 861:Libraries/STM32F10x_StdPeriph_Driver/src/stm32f10x_rcc.c ****   assert_param(IS_FUNCTIONAL_STATE(NewState));
 862:Libraries/STM32F10x_StdPeriph_Driver/src/stm32f10x_rcc.c ****   *(__IO uint32_t *) CSR_LSION_BB = (uint32_t)NewState;
 863:Libraries/STM32F10x_StdPeriph_Driver/src/stm32f10x_rcc.c **** }
 864:Libraries/STM32F10x_StdPeriph_Driver/src/stm32f10x_rcc.c **** 
 865:Libraries/STM32F10x_StdPeriph_Driver/src/stm32f10x_rcc.c **** /**
 866:Libraries/STM32F10x_StdPeriph_Driver/src/stm32f10x_rcc.c ****   * @brief  Configures the RTC clock (RTCCLK).
 867:Libraries/STM32F10x_StdPeriph_Driver/src/stm32f10x_rcc.c ****   * @note   Once the RTC clock is selected it cant be changed unless the Backup domain is reset.
 868:Libraries/STM32F10x_StdPeriph_Driver/src/stm32f10x_rcc.c ****   * @param  RCC_RTCCLKSource: specifies the RTC clock source.
 869:Libraries/STM32F10x_StdPeriph_Driver/src/stm32f10x_rcc.c ****   *   This parameter can be one of the following values:
 870:Libraries/STM32F10x_StdPeriph_Driver/src/stm32f10x_rcc.c ****   *     @arg RCC_RTCCLKSource_LSE: LSE selected as RTC clock
 871:Libraries/STM32F10x_StdPeriph_Driver/src/stm32f10x_rcc.c ****   *     @arg RCC_RTCCLKSource_LSI: LSI selected as RTC clock
 872:Libraries/STM32F10x_StdPeriph_Driver/src/stm32f10x_rcc.c ****   *     @arg RCC_RTCCLKSource_HSE_Div128: HSE clock divided by 128 selected as RTC clock
 873:Libraries/STM32F10x_StdPeriph_Driver/src/stm32f10x_rcc.c ****   * @retval None
 874:Libraries/STM32F10x_StdPeriph_Driver/src/stm32f10x_rcc.c ****   */
 875:Libraries/STM32F10x_StdPeriph_Driver/src/stm32f10x_rcc.c **** void RCC_RTCCLKConfig(uint32_t RCC_RTCCLKSource)
 876:Libraries/STM32F10x_StdPeriph_Driver/src/stm32f10x_rcc.c **** {
 877:Libraries/STM32F10x_StdPeriph_Driver/src/stm32f10x_rcc.c ****   /* Check the parameters */
 878:Libraries/STM32F10x_StdPeriph_Driver/src/stm32f10x_rcc.c ****   assert_param(IS_RCC_RTCCLK_SOURCE(RCC_RTCCLKSource));
 879:Libraries/STM32F10x_StdPeriph_Driver/src/stm32f10x_rcc.c ****   /* Select the RTC clock source */
 880:Libraries/STM32F10x_StdPeriph_Driver/src/stm32f10x_rcc.c ****   RCC->BDCR |= RCC_RTCCLKSource;
 881:Libraries/STM32F10x_StdPeriph_Driver/src/stm32f10x_rcc.c **** }
 882:Libraries/STM32F10x_StdPeriph_Driver/src/stm32f10x_rcc.c **** 
 883:Libraries/STM32F10x_StdPeriph_Driver/src/stm32f10x_rcc.c **** /**
 884:Libraries/STM32F10x_StdPeriph_Driver/src/stm32f10x_rcc.c ****   * @brief  Enables or disables the RTC clock.
 885:Libraries/STM32F10x_StdPeriph_Driver/src/stm32f10x_rcc.c ****   * @note   This function must be used only after the RTC clock was selected using the RCC_RTCCLKCo
 886:Libraries/STM32F10x_StdPeriph_Driver/src/stm32f10x_rcc.c ****   * @param  NewState: new state of the RTC clock. This parameter can be: ENABLE or DISABLE.
 887:Libraries/STM32F10x_StdPeriph_Driver/src/stm32f10x_rcc.c ****   * @retval None
 888:Libraries/STM32F10x_StdPeriph_Driver/src/stm32f10x_rcc.c ****   */
 889:Libraries/STM32F10x_StdPeriph_Driver/src/stm32f10x_rcc.c **** void RCC_RTCCLKCmd(FunctionalState NewState)
 890:Libraries/STM32F10x_StdPeriph_Driver/src/stm32f10x_rcc.c **** {
 891:Libraries/STM32F10x_StdPeriph_Driver/src/stm32f10x_rcc.c ****   /* Check the parameters */
 892:Libraries/STM32F10x_StdPeriph_Driver/src/stm32f10x_rcc.c ****   assert_param(IS_FUNCTIONAL_STATE(NewState));
 893:Libraries/STM32F10x_StdPeriph_Driver/src/stm32f10x_rcc.c ****   *(__IO uint32_t *) BDCR_RTCEN_BB = (uint32_t)NewState;
 894:Libraries/STM32F10x_StdPeriph_Driver/src/stm32f10x_rcc.c **** }
 895:Libraries/STM32F10x_StdPeriph_Driver/src/stm32f10x_rcc.c **** 
 896:Libraries/STM32F10x_StdPeriph_Driver/src/stm32f10x_rcc.c **** /**
 897:Libraries/STM32F10x_StdPeriph_Driver/src/stm32f10x_rcc.c ****   * @brief  Returns the frequencies of different on chip clocks.
 898:Libraries/STM32F10x_StdPeriph_Driver/src/stm32f10x_rcc.c ****   * @param  RCC_Clocks: pointer to a RCC_ClocksTypeDef structure which will hold
 899:Libraries/STM32F10x_StdPeriph_Driver/src/stm32f10x_rcc.c ****   *   the clocks frequencies.
 900:Libraries/STM32F10x_StdPeriph_Driver/src/stm32f10x_rcc.c ****   * @retval None
 901:Libraries/STM32F10x_StdPeriph_Driver/src/stm32f10x_rcc.c ****   */
 902:Libraries/STM32F10x_StdPeriph_Driver/src/stm32f10x_rcc.c **** void RCC_GetClocksFreq(RCC_ClocksTypeDef* RCC_Clocks)
 903:Libraries/STM32F10x_StdPeriph_Driver/src/stm32f10x_rcc.c **** {
 904:Libraries/STM32F10x_StdPeriph_Driver/src/stm32f10x_rcc.c ****   uint32_t tmp = 0, pllmull = 0, pllsource = 0, presc = 0;
 905:Libraries/STM32F10x_StdPeriph_Driver/src/stm32f10x_rcc.c **** 
 906:Libraries/STM32F10x_StdPeriph_Driver/src/stm32f10x_rcc.c **** #ifdef  STM32F10X_CL
 907:Libraries/STM32F10x_StdPeriph_Driver/src/stm32f10x_rcc.c ****   uint32_t prediv1source = 0, prediv1factor = 0, prediv2factor = 0, pll2mull = 0;
 908:Libraries/STM32F10x_StdPeriph_Driver/src/stm32f10x_rcc.c **** #endif /* STM32F10X_CL */
 909:Libraries/STM32F10x_StdPeriph_Driver/src/stm32f10x_rcc.c ****     
 910:Libraries/STM32F10x_StdPeriph_Driver/src/stm32f10x_rcc.c ****   /* Get SYSCLK source -------------------------------------------------------*/
 911:Libraries/STM32F10x_StdPeriph_Driver/src/stm32f10x_rcc.c ****   tmp = RCC->CFGR & CFGR_SWS_Mask;
 912:Libraries/STM32F10x_StdPeriph_Driver/src/stm32f10x_rcc.c ****   
 913:Libraries/STM32F10x_StdPeriph_Driver/src/stm32f10x_rcc.c ****   switch (tmp)
 914:Libraries/STM32F10x_StdPeriph_Driver/src/stm32f10x_rcc.c ****   {
 915:Libraries/STM32F10x_StdPeriph_Driver/src/stm32f10x_rcc.c ****     case 0x00:  /* HSI used as system clock */
 916:Libraries/STM32F10x_StdPeriph_Driver/src/stm32f10x_rcc.c ****       RCC_Clocks->SYSCLK_Frequency = HSI_Value;
 917:Libraries/STM32F10x_StdPeriph_Driver/src/stm32f10x_rcc.c ****       break;
 918:Libraries/STM32F10x_StdPeriph_Driver/src/stm32f10x_rcc.c ****     case 0x04:  /* HSE used as system clock */
 919:Libraries/STM32F10x_StdPeriph_Driver/src/stm32f10x_rcc.c ****       RCC_Clocks->SYSCLK_Frequency = HSE_Value;
 920:Libraries/STM32F10x_StdPeriph_Driver/src/stm32f10x_rcc.c ****       break;
 921:Libraries/STM32F10x_StdPeriph_Driver/src/stm32f10x_rcc.c ****     case 0x08:  /* PLL used as system clock */
 922:Libraries/STM32F10x_StdPeriph_Driver/src/stm32f10x_rcc.c **** 
 923:Libraries/STM32F10x_StdPeriph_Driver/src/stm32f10x_rcc.c ****       /* Get PLL clock source and multiplication factor ----------------------*/
 924:Libraries/STM32F10x_StdPeriph_Driver/src/stm32f10x_rcc.c ****       pllmull = RCC->CFGR & CFGR_PLLMull_Mask;
 925:Libraries/STM32F10x_StdPeriph_Driver/src/stm32f10x_rcc.c ****       pllsource = RCC->CFGR & CFGR_PLLSRC_Mask;
 926:Libraries/STM32F10x_StdPeriph_Driver/src/stm32f10x_rcc.c ****       
 927:Libraries/STM32F10x_StdPeriph_Driver/src/stm32f10x_rcc.c **** #ifndef STM32F10X_CL      
 928:Libraries/STM32F10x_StdPeriph_Driver/src/stm32f10x_rcc.c ****       pllmull = ( pllmull >> 18) + 2;
 929:Libraries/STM32F10x_StdPeriph_Driver/src/stm32f10x_rcc.c ****       
 930:Libraries/STM32F10x_StdPeriph_Driver/src/stm32f10x_rcc.c ****       if (pllsource == 0x00)
 931:Libraries/STM32F10x_StdPeriph_Driver/src/stm32f10x_rcc.c ****       {/* HSI oscillator clock divided by 2 selected as PLL clock entry */
 932:Libraries/STM32F10x_StdPeriph_Driver/src/stm32f10x_rcc.c ****         RCC_Clocks->SYSCLK_Frequency = (HSI_Value >> 1) * pllmull;
 933:Libraries/STM32F10x_StdPeriph_Driver/src/stm32f10x_rcc.c ****       }
 934:Libraries/STM32F10x_StdPeriph_Driver/src/stm32f10x_rcc.c ****       else
 935:Libraries/STM32F10x_StdPeriph_Driver/src/stm32f10x_rcc.c ****       {/* HSE selected as PLL clock entry */
 936:Libraries/STM32F10x_StdPeriph_Driver/src/stm32f10x_rcc.c ****         if ((RCC->CFGR & CFGR_PLLXTPRE_Mask) != (uint32_t)RESET)
 937:Libraries/STM32F10x_StdPeriph_Driver/src/stm32f10x_rcc.c ****         {/* HSE oscillator clock divided by 2 */
 938:Libraries/STM32F10x_StdPeriph_Driver/src/stm32f10x_rcc.c ****           RCC_Clocks->SYSCLK_Frequency = (HSE_Value >> 1) * pllmull;
 939:Libraries/STM32F10x_StdPeriph_Driver/src/stm32f10x_rcc.c ****         }
 940:Libraries/STM32F10x_StdPeriph_Driver/src/stm32f10x_rcc.c ****         else
 941:Libraries/STM32F10x_StdPeriph_Driver/src/stm32f10x_rcc.c ****         {
 942:Libraries/STM32F10x_StdPeriph_Driver/src/stm32f10x_rcc.c ****           RCC_Clocks->SYSCLK_Frequency = HSE_Value * pllmull;
 943:Libraries/STM32F10x_StdPeriph_Driver/src/stm32f10x_rcc.c ****         }
 944:Libraries/STM32F10x_StdPeriph_Driver/src/stm32f10x_rcc.c ****       }
 945:Libraries/STM32F10x_StdPeriph_Driver/src/stm32f10x_rcc.c **** #else
 946:Libraries/STM32F10x_StdPeriph_Driver/src/stm32f10x_rcc.c ****       pllmull = pllmull >> 18;
 947:Libraries/STM32F10x_StdPeriph_Driver/src/stm32f10x_rcc.c ****       
 948:Libraries/STM32F10x_StdPeriph_Driver/src/stm32f10x_rcc.c ****       if (pllmull != 0x0D)
 949:Libraries/STM32F10x_StdPeriph_Driver/src/stm32f10x_rcc.c ****       {
 950:Libraries/STM32F10x_StdPeriph_Driver/src/stm32f10x_rcc.c ****          pllmull += 2;
 951:Libraries/STM32F10x_StdPeriph_Driver/src/stm32f10x_rcc.c ****       }
 952:Libraries/STM32F10x_StdPeriph_Driver/src/stm32f10x_rcc.c ****       else
 953:Libraries/STM32F10x_StdPeriph_Driver/src/stm32f10x_rcc.c ****       { /* PLL multiplication factor = PLL input clock * 6.5 */
 954:Libraries/STM32F10x_StdPeriph_Driver/src/stm32f10x_rcc.c ****         pllmull = 13 / 2; 
 955:Libraries/STM32F10x_StdPeriph_Driver/src/stm32f10x_rcc.c ****       }
 956:Libraries/STM32F10x_StdPeriph_Driver/src/stm32f10x_rcc.c ****             
 957:Libraries/STM32F10x_StdPeriph_Driver/src/stm32f10x_rcc.c ****       if (pllsource == 0x00)
 958:Libraries/STM32F10x_StdPeriph_Driver/src/stm32f10x_rcc.c ****       {/* HSI oscillator clock divided by 2 selected as PLL clock entry */
 959:Libraries/STM32F10x_StdPeriph_Driver/src/stm32f10x_rcc.c ****         RCC_Clocks->SYSCLK_Frequency = (HSI_Value >> 1) * pllmull;
 960:Libraries/STM32F10x_StdPeriph_Driver/src/stm32f10x_rcc.c ****       }
 961:Libraries/STM32F10x_StdPeriph_Driver/src/stm32f10x_rcc.c ****       else
 962:Libraries/STM32F10x_StdPeriph_Driver/src/stm32f10x_rcc.c ****       {/* PREDIV1 selected as PLL clock entry */
 963:Libraries/STM32F10x_StdPeriph_Driver/src/stm32f10x_rcc.c ****         
 964:Libraries/STM32F10x_StdPeriph_Driver/src/stm32f10x_rcc.c ****         /* Get PREDIV1 clock source and division factor */
 965:Libraries/STM32F10x_StdPeriph_Driver/src/stm32f10x_rcc.c ****         prediv1source = RCC->CFGR2 & CFGR2_PREDIV1SRC;
 966:Libraries/STM32F10x_StdPeriph_Driver/src/stm32f10x_rcc.c ****         prediv1factor = (RCC->CFGR2 & CFGR2_PREDIV1) + 1;
 967:Libraries/STM32F10x_StdPeriph_Driver/src/stm32f10x_rcc.c ****         
 968:Libraries/STM32F10x_StdPeriph_Driver/src/stm32f10x_rcc.c ****         if (prediv1source == 0)
 969:Libraries/STM32F10x_StdPeriph_Driver/src/stm32f10x_rcc.c ****         { /* HSE oscillator clock selected as PREDIV1 clock entry */
 970:Libraries/STM32F10x_StdPeriph_Driver/src/stm32f10x_rcc.c ****           RCC_Clocks->SYSCLK_Frequency = (HSE_Value / prediv1factor) * pllmull;          
 971:Libraries/STM32F10x_StdPeriph_Driver/src/stm32f10x_rcc.c ****         }
 972:Libraries/STM32F10x_StdPeriph_Driver/src/stm32f10x_rcc.c ****         else
 973:Libraries/STM32F10x_StdPeriph_Driver/src/stm32f10x_rcc.c ****         {/* PLL2 clock selected as PREDIV1 clock entry */
 974:Libraries/STM32F10x_StdPeriph_Driver/src/stm32f10x_rcc.c ****           
 975:Libraries/STM32F10x_StdPeriph_Driver/src/stm32f10x_rcc.c ****           /* Get PREDIV2 division factor and PLL2 multiplication factor */
 976:Libraries/STM32F10x_StdPeriph_Driver/src/stm32f10x_rcc.c ****           prediv2factor = ((RCC->CFGR2 & CFGR2_PREDIV2) >> 4) + 1;
 977:Libraries/STM32F10x_StdPeriph_Driver/src/stm32f10x_rcc.c ****           pll2mull = ((RCC->CFGR2 & CFGR2_PLL2MUL) >> 8 ) + 2; 
 978:Libraries/STM32F10x_StdPeriph_Driver/src/stm32f10x_rcc.c ****           RCC_Clocks->SYSCLK_Frequency = (((HSE_Value / prediv2factor) * pll2mull) / prediv1factor)
 979:Libraries/STM32F10x_StdPeriph_Driver/src/stm32f10x_rcc.c ****         }
 980:Libraries/STM32F10x_StdPeriph_Driver/src/stm32f10x_rcc.c ****       }
 981:Libraries/STM32F10x_StdPeriph_Driver/src/stm32f10x_rcc.c **** #endif /* STM32F10X_CL */ 
 982:Libraries/STM32F10x_StdPeriph_Driver/src/stm32f10x_rcc.c ****       break;
 983:Libraries/STM32F10x_StdPeriph_Driver/src/stm32f10x_rcc.c **** 
 984:Libraries/STM32F10x_StdPeriph_Driver/src/stm32f10x_rcc.c ****     default:
 985:Libraries/STM32F10x_StdPeriph_Driver/src/stm32f10x_rcc.c ****       RCC_Clocks->SYSCLK_Frequency = HSI_Value;
 986:Libraries/STM32F10x_StdPeriph_Driver/src/stm32f10x_rcc.c ****       break;
 987:Libraries/STM32F10x_StdPeriph_Driver/src/stm32f10x_rcc.c ****   }
 988:Libraries/STM32F10x_StdPeriph_Driver/src/stm32f10x_rcc.c **** 
 989:Libraries/STM32F10x_StdPeriph_Driver/src/stm32f10x_rcc.c ****   /* Compute HCLK, PCLK1, PCLK2 and ADCCLK clocks frequencies ----------------*/
 990:Libraries/STM32F10x_StdPeriph_Driver/src/stm32f10x_rcc.c ****   /* Get HCLK prescaler */
 991:Libraries/STM32F10x_StdPeriph_Driver/src/stm32f10x_rcc.c ****   tmp = RCC->CFGR & CFGR_HPRE_Set_Mask;
 992:Libraries/STM32F10x_StdPeriph_Driver/src/stm32f10x_rcc.c ****   tmp = tmp >> 4;
 993:Libraries/STM32F10x_StdPeriph_Driver/src/stm32f10x_rcc.c ****   presc = APBAHBPrescTable[tmp];
 994:Libraries/STM32F10x_StdPeriph_Driver/src/stm32f10x_rcc.c ****   /* HCLK clock frequency */
 995:Libraries/STM32F10x_StdPeriph_Driver/src/stm32f10x_rcc.c ****   RCC_Clocks->HCLK_Frequency = RCC_Clocks->SYSCLK_Frequency >> presc;
 996:Libraries/STM32F10x_StdPeriph_Driver/src/stm32f10x_rcc.c ****   /* Get PCLK1 prescaler */
 997:Libraries/STM32F10x_StdPeriph_Driver/src/stm32f10x_rcc.c ****   tmp = RCC->CFGR & CFGR_PPRE1_Set_Mask;
 998:Libraries/STM32F10x_StdPeriph_Driver/src/stm32f10x_rcc.c ****   tmp = tmp >> 8;
 999:Libraries/STM32F10x_StdPeriph_Driver/src/stm32f10x_rcc.c ****   presc = APBAHBPrescTable[tmp];
1000:Libraries/STM32F10x_StdPeriph_Driver/src/stm32f10x_rcc.c ****   /* PCLK1 clock frequency */
1001:Libraries/STM32F10x_StdPeriph_Driver/src/stm32f10x_rcc.c ****   RCC_Clocks->PCLK1_Frequency = RCC_Clocks->HCLK_Frequency >> presc;
1002:Libraries/STM32F10x_StdPeriph_Driver/src/stm32f10x_rcc.c ****   /* Get PCLK2 prescaler */
1003:Libraries/STM32F10x_StdPeriph_Driver/src/stm32f10x_rcc.c ****   tmp = RCC->CFGR & CFGR_PPRE2_Set_Mask;
1004:Libraries/STM32F10x_StdPeriph_Driver/src/stm32f10x_rcc.c ****   tmp = tmp >> 11;
1005:Libraries/STM32F10x_StdPeriph_Driver/src/stm32f10x_rcc.c ****   presc = APBAHBPrescTable[tmp];
1006:Libraries/STM32F10x_StdPeriph_Driver/src/stm32f10x_rcc.c ****   /* PCLK2 clock frequency */
1007:Libraries/STM32F10x_StdPeriph_Driver/src/stm32f10x_rcc.c ****   RCC_Clocks->PCLK2_Frequency = RCC_Clocks->HCLK_Frequency >> presc;
1008:Libraries/STM32F10x_StdPeriph_Driver/src/stm32f10x_rcc.c ****   /* Get ADCCLK prescaler */
1009:Libraries/STM32F10x_StdPeriph_Driver/src/stm32f10x_rcc.c ****   tmp = RCC->CFGR & CFGR_ADCPRE_Set_Mask;
1010:Libraries/STM32F10x_StdPeriph_Driver/src/stm32f10x_rcc.c ****   tmp = tmp >> 14;
1011:Libraries/STM32F10x_StdPeriph_Driver/src/stm32f10x_rcc.c ****   presc = ADCPrescTable[tmp];
1012:Libraries/STM32F10x_StdPeriph_Driver/src/stm32f10x_rcc.c ****   /* ADCCLK clock frequency */
1013:Libraries/STM32F10x_StdPeriph_Driver/src/stm32f10x_rcc.c ****   RCC_Clocks->ADCCLK_Frequency = RCC_Clocks->PCLK2_Frequency / presc;
1014:Libraries/STM32F10x_StdPeriph_Driver/src/stm32f10x_rcc.c **** }
1015:Libraries/STM32F10x_StdPeriph_Driver/src/stm32f10x_rcc.c **** 
1016:Libraries/STM32F10x_StdPeriph_Driver/src/stm32f10x_rcc.c **** /**
1017:Libraries/STM32F10x_StdPeriph_Driver/src/stm32f10x_rcc.c ****   * @brief  Enables or disables the AHB peripheral clock.
1018:Libraries/STM32F10x_StdPeriph_Driver/src/stm32f10x_rcc.c ****   * @param  RCC_AHBPeriph: specifies the AHB peripheral to gates its clock.
1019:Libraries/STM32F10x_StdPeriph_Driver/src/stm32f10x_rcc.c ****   *   
1020:Libraries/STM32F10x_StdPeriph_Driver/src/stm32f10x_rcc.c ****   *   For @b STM32_Connectivity_line_devices, this parameter can be any combination
1021:Libraries/STM32F10x_StdPeriph_Driver/src/stm32f10x_rcc.c ****   *   of the following values:        
1022:Libraries/STM32F10x_StdPeriph_Driver/src/stm32f10x_rcc.c ****   *     @arg RCC_AHBPeriph_DMA1
1023:Libraries/STM32F10x_StdPeriph_Driver/src/stm32f10x_rcc.c ****   *     @arg RCC_AHBPeriph_DMA2
1024:Libraries/STM32F10x_StdPeriph_Driver/src/stm32f10x_rcc.c ****   *     @arg RCC_AHBPeriph_SRAM
1025:Libraries/STM32F10x_StdPeriph_Driver/src/stm32f10x_rcc.c ****   *     @arg RCC_AHBPeriph_FLITF
1026:Libraries/STM32F10x_StdPeriph_Driver/src/stm32f10x_rcc.c ****   *     @arg RCC_AHBPeriph_CRC
1027:Libraries/STM32F10x_StdPeriph_Driver/src/stm32f10x_rcc.c ****   *     @arg RCC_AHBPeriph_OTG_FS    
1028:Libraries/STM32F10x_StdPeriph_Driver/src/stm32f10x_rcc.c ****   *     @arg RCC_AHBPeriph_ETH_MAC   
1029:Libraries/STM32F10x_StdPeriph_Driver/src/stm32f10x_rcc.c ****   *     @arg RCC_AHBPeriph_ETH_MAC_Tx
1030:Libraries/STM32F10x_StdPeriph_Driver/src/stm32f10x_rcc.c ****   *     @arg RCC_AHBPeriph_ETH_MAC_Rx
1031:Libraries/STM32F10x_StdPeriph_Driver/src/stm32f10x_rcc.c ****   * 
1032:Libraries/STM32F10x_StdPeriph_Driver/src/stm32f10x_rcc.c ****   *   For @b other_STM32_devices, this parameter can be any combination of the 
1033:Libraries/STM32F10x_StdPeriph_Driver/src/stm32f10x_rcc.c ****   *   following values:        
1034:Libraries/STM32F10x_StdPeriph_Driver/src/stm32f10x_rcc.c ****   *     @arg RCC_AHBPeriph_DMA1
1035:Libraries/STM32F10x_StdPeriph_Driver/src/stm32f10x_rcc.c ****   *     @arg RCC_AHBPeriph_DMA2
1036:Libraries/STM32F10x_StdPeriph_Driver/src/stm32f10x_rcc.c ****   *     @arg RCC_AHBPeriph_SRAM
1037:Libraries/STM32F10x_StdPeriph_Driver/src/stm32f10x_rcc.c ****   *     @arg RCC_AHBPeriph_FLITF
1038:Libraries/STM32F10x_StdPeriph_Driver/src/stm32f10x_rcc.c ****   *     @arg RCC_AHBPeriph_CRC
1039:Libraries/STM32F10x_StdPeriph_Driver/src/stm32f10x_rcc.c ****   *     @arg RCC_AHBPeriph_FSMC
1040:Libraries/STM32F10x_StdPeriph_Driver/src/stm32f10x_rcc.c ****   *     @arg RCC_AHBPeriph_SDIO
1041:Libraries/STM32F10x_StdPeriph_Driver/src/stm32f10x_rcc.c ****   *   
1042:Libraries/STM32F10x_StdPeriph_Driver/src/stm32f10x_rcc.c ****   * @note SRAM and FLITF clock can be disabled only during sleep mode.
1043:Libraries/STM32F10x_StdPeriph_Driver/src/stm32f10x_rcc.c ****   * @param  NewState: new state of the specified peripheral clock.
1044:Libraries/STM32F10x_StdPeriph_Driver/src/stm32f10x_rcc.c ****   *   This parameter can be: ENABLE or DISABLE.
1045:Libraries/STM32F10x_StdPeriph_Driver/src/stm32f10x_rcc.c ****   * @retval None
1046:Libraries/STM32F10x_StdPeriph_Driver/src/stm32f10x_rcc.c ****   */
1047:Libraries/STM32F10x_StdPeriph_Driver/src/stm32f10x_rcc.c **** void RCC_AHBPeriphClockCmd(uint32_t RCC_AHBPeriph, FunctionalState NewState)
1048:Libraries/STM32F10x_StdPeriph_Driver/src/stm32f10x_rcc.c **** {
1049:Libraries/STM32F10x_StdPeriph_Driver/src/stm32f10x_rcc.c ****   /* Check the parameters */
1050:Libraries/STM32F10x_StdPeriph_Driver/src/stm32f10x_rcc.c ****   assert_param(IS_RCC_AHB_PERIPH(RCC_AHBPeriph));
1051:Libraries/STM32F10x_StdPeriph_Driver/src/stm32f10x_rcc.c ****   assert_param(IS_FUNCTIONAL_STATE(NewState));
1052:Libraries/STM32F10x_StdPeriph_Driver/src/stm32f10x_rcc.c **** 
1053:Libraries/STM32F10x_StdPeriph_Driver/src/stm32f10x_rcc.c ****   if (NewState != DISABLE)
1054:Libraries/STM32F10x_StdPeriph_Driver/src/stm32f10x_rcc.c ****   {
1055:Libraries/STM32F10x_StdPeriph_Driver/src/stm32f10x_rcc.c ****     RCC->AHBENR |= RCC_AHBPeriph;
1056:Libraries/STM32F10x_StdPeriph_Driver/src/stm32f10x_rcc.c ****   }
1057:Libraries/STM32F10x_StdPeriph_Driver/src/stm32f10x_rcc.c ****   else
1058:Libraries/STM32F10x_StdPeriph_Driver/src/stm32f10x_rcc.c ****   {
1059:Libraries/STM32F10x_StdPeriph_Driver/src/stm32f10x_rcc.c ****     RCC->AHBENR &= ~RCC_AHBPeriph;
1060:Libraries/STM32F10x_StdPeriph_Driver/src/stm32f10x_rcc.c ****   }
1061:Libraries/STM32F10x_StdPeriph_Driver/src/stm32f10x_rcc.c **** }
1062:Libraries/STM32F10x_StdPeriph_Driver/src/stm32f10x_rcc.c **** 
1063:Libraries/STM32F10x_StdPeriph_Driver/src/stm32f10x_rcc.c **** /**
1064:Libraries/STM32F10x_StdPeriph_Driver/src/stm32f10x_rcc.c ****   * @brief  Enables or disables the High Speed APB (APB2) peripheral clock.
1065:Libraries/STM32F10x_StdPeriph_Driver/src/stm32f10x_rcc.c ****   * @param  RCC_APB2Periph: specifies the APB2 peripheral to gates its clock.
1066:Libraries/STM32F10x_StdPeriph_Driver/src/stm32f10x_rcc.c ****   *   This parameter can be any combination of the following values:
1067:Libraries/STM32F10x_StdPeriph_Driver/src/stm32f10x_rcc.c ****   *     @arg RCC_APB2Periph_AFIO, RCC_APB2Periph_GPIOA, RCC_APB2Periph_GPIOB,
1068:Libraries/STM32F10x_StdPeriph_Driver/src/stm32f10x_rcc.c ****   *          RCC_APB2Periph_GPIOC, RCC_APB2Periph_GPIOD, RCC_APB2Periph_GPIOE,
1069:Libraries/STM32F10x_StdPeriph_Driver/src/stm32f10x_rcc.c ****   *          RCC_APB2Periph_GPIOF, RCC_APB2Periph_GPIOG, RCC_APB2Periph_ADC1,
1070:Libraries/STM32F10x_StdPeriph_Driver/src/stm32f10x_rcc.c ****   *          RCC_APB2Periph_ADC2, RCC_APB2Periph_TIM1, RCC_APB2Periph_SPI1,
1071:Libraries/STM32F10x_StdPeriph_Driver/src/stm32f10x_rcc.c ****   *          RCC_APB2Periph_TIM8, RCC_APB2Periph_USART1, RCC_APB2Periph_ADC3
1072:Libraries/STM32F10x_StdPeriph_Driver/src/stm32f10x_rcc.c ****   * @param  NewState: new state of the specified peripheral clock.
1073:Libraries/STM32F10x_StdPeriph_Driver/src/stm32f10x_rcc.c ****   *   This parameter can be: ENABLE or DISABLE.
1074:Libraries/STM32F10x_StdPeriph_Driver/src/stm32f10x_rcc.c ****   * @retval None
1075:Libraries/STM32F10x_StdPeriph_Driver/src/stm32f10x_rcc.c ****   */
1076:Libraries/STM32F10x_StdPeriph_Driver/src/stm32f10x_rcc.c **** void RCC_APB2PeriphClockCmd(uint32_t RCC_APB2Periph, FunctionalState NewState)
1077:Libraries/STM32F10x_StdPeriph_Driver/src/stm32f10x_rcc.c **** {
1078:Libraries/STM32F10x_StdPeriph_Driver/src/stm32f10x_rcc.c ****   /* Check the parameters */
1079:Libraries/STM32F10x_StdPeriph_Driver/src/stm32f10x_rcc.c ****   assert_param(IS_RCC_APB2_PERIPH(RCC_APB2Periph));
1080:Libraries/STM32F10x_StdPeriph_Driver/src/stm32f10x_rcc.c ****   assert_param(IS_FUNCTIONAL_STATE(NewState));
1081:Libraries/STM32F10x_StdPeriph_Driver/src/stm32f10x_rcc.c ****   if (NewState != DISABLE)
1082:Libraries/STM32F10x_StdPeriph_Driver/src/stm32f10x_rcc.c ****   {
1083:Libraries/STM32F10x_StdPeriph_Driver/src/stm32f10x_rcc.c ****     RCC->APB2ENR |= RCC_APB2Periph;
1084:Libraries/STM32F10x_StdPeriph_Driver/src/stm32f10x_rcc.c ****   }
1085:Libraries/STM32F10x_StdPeriph_Driver/src/stm32f10x_rcc.c ****   else
1086:Libraries/STM32F10x_StdPeriph_Driver/src/stm32f10x_rcc.c ****   {
1087:Libraries/STM32F10x_StdPeriph_Driver/src/stm32f10x_rcc.c ****     RCC->APB2ENR &= ~RCC_APB2Periph;
1088:Libraries/STM32F10x_StdPeriph_Driver/src/stm32f10x_rcc.c ****   }
1089:Libraries/STM32F10x_StdPeriph_Driver/src/stm32f10x_rcc.c **** }
1090:Libraries/STM32F10x_StdPeriph_Driver/src/stm32f10x_rcc.c **** 
1091:Libraries/STM32F10x_StdPeriph_Driver/src/stm32f10x_rcc.c **** /**
1092:Libraries/STM32F10x_StdPeriph_Driver/src/stm32f10x_rcc.c ****   * @brief  Enables or disables the Low Speed APB (APB1) peripheral clock.
1093:Libraries/STM32F10x_StdPeriph_Driver/src/stm32f10x_rcc.c ****   * @param  RCC_APB1Periph: specifies the APB1 peripheral to gates its clock.
1094:Libraries/STM32F10x_StdPeriph_Driver/src/stm32f10x_rcc.c ****   *   This parameter can be any combination of the following values:
1095:Libraries/STM32F10x_StdPeriph_Driver/src/stm32f10x_rcc.c ****   *     @arg RCC_APB1Periph_TIM2, RCC_APB1Periph_TIM3, RCC_APB1Periph_TIM4,
1096:Libraries/STM32F10x_StdPeriph_Driver/src/stm32f10x_rcc.c ****   *          RCC_APB1Periph_TIM5, RCC_APB1Periph_TIM6, RCC_APB1Periph_TIM7,
1097:Libraries/STM32F10x_StdPeriph_Driver/src/stm32f10x_rcc.c ****   *          RCC_APB1Periph_WWDG, RCC_APB1Periph_SPI2, RCC_APB1Periph_SPI3,
1098:Libraries/STM32F10x_StdPeriph_Driver/src/stm32f10x_rcc.c ****   *          RCC_APB1Periph_USART2, RCC_APB1Periph_USART3, RCC_APB1Periph_USART4, 
1099:Libraries/STM32F10x_StdPeriph_Driver/src/stm32f10x_rcc.c ****   *          RCC_APB1Periph_USART5, RCC_APB1Periph_I2C1, RCC_APB1Periph_I2C2,
1100:Libraries/STM32F10x_StdPeriph_Driver/src/stm32f10x_rcc.c ****   *          RCC_APB1Periph_USB, RCC_APB1Periph_CAN1, RCC_APB1Periph_BKP,
1101:Libraries/STM32F10x_StdPeriph_Driver/src/stm32f10x_rcc.c ****   *          RCC_APB1Periph_PWR, RCC_APB1Periph_DAC
1102:Libraries/STM32F10x_StdPeriph_Driver/src/stm32f10x_rcc.c ****   * @param  NewState: new state of the specified peripheral clock.
1103:Libraries/STM32F10x_StdPeriph_Driver/src/stm32f10x_rcc.c ****   *   This parameter can be: ENABLE or DISABLE.
1104:Libraries/STM32F10x_StdPeriph_Driver/src/stm32f10x_rcc.c ****   * @retval None
1105:Libraries/STM32F10x_StdPeriph_Driver/src/stm32f10x_rcc.c ****   */
1106:Libraries/STM32F10x_StdPeriph_Driver/src/stm32f10x_rcc.c **** void RCC_APB1PeriphClockCmd(uint32_t RCC_APB1Periph, FunctionalState NewState)
1107:Libraries/STM32F10x_StdPeriph_Driver/src/stm32f10x_rcc.c **** {
1108:Libraries/STM32F10x_StdPeriph_Driver/src/stm32f10x_rcc.c ****   /* Check the parameters */
1109:Libraries/STM32F10x_StdPeriph_Driver/src/stm32f10x_rcc.c ****   assert_param(IS_RCC_APB1_PERIPH(RCC_APB1Periph));
1110:Libraries/STM32F10x_StdPeriph_Driver/src/stm32f10x_rcc.c ****   assert_param(IS_FUNCTIONAL_STATE(NewState));
1111:Libraries/STM32F10x_StdPeriph_Driver/src/stm32f10x_rcc.c ****   if (NewState != DISABLE)
1112:Libraries/STM32F10x_StdPeriph_Driver/src/stm32f10x_rcc.c ****   {
1113:Libraries/STM32F10x_StdPeriph_Driver/src/stm32f10x_rcc.c ****     RCC->APB1ENR |= RCC_APB1Periph;
1114:Libraries/STM32F10x_StdPeriph_Driver/src/stm32f10x_rcc.c ****   }
1115:Libraries/STM32F10x_StdPeriph_Driver/src/stm32f10x_rcc.c ****   else
1116:Libraries/STM32F10x_StdPeriph_Driver/src/stm32f10x_rcc.c ****   {
1117:Libraries/STM32F10x_StdPeriph_Driver/src/stm32f10x_rcc.c ****     RCC->APB1ENR &= ~RCC_APB1Periph;
1118:Libraries/STM32F10x_StdPeriph_Driver/src/stm32f10x_rcc.c ****   }
1119:Libraries/STM32F10x_StdPeriph_Driver/src/stm32f10x_rcc.c **** }
1120:Libraries/STM32F10x_StdPeriph_Driver/src/stm32f10x_rcc.c **** 
1121:Libraries/STM32F10x_StdPeriph_Driver/src/stm32f10x_rcc.c **** #ifdef STM32F10X_CL
1122:Libraries/STM32F10x_StdPeriph_Driver/src/stm32f10x_rcc.c **** /**
1123:Libraries/STM32F10x_StdPeriph_Driver/src/stm32f10x_rcc.c ****   * @brief  Forces or releases AHB peripheral reset.
1124:Libraries/STM32F10x_StdPeriph_Driver/src/stm32f10x_rcc.c ****   * @note   This function applies only to STM32 Connectivity line devices.
1125:Libraries/STM32F10x_StdPeriph_Driver/src/stm32f10x_rcc.c ****   * @param  RCC_AHBPeriph: specifies the AHB peripheral to reset.
1126:Libraries/STM32F10x_StdPeriph_Driver/src/stm32f10x_rcc.c ****   *   This parameter can be any combination of the following values:
1127:Libraries/STM32F10x_StdPeriph_Driver/src/stm32f10x_rcc.c ****   *     @arg RCC_AHBPeriph_OTG_FS 
1128:Libraries/STM32F10x_StdPeriph_Driver/src/stm32f10x_rcc.c ****   *     @arg RCC_AHBPeriph_ETH_MAC
1129:Libraries/STM32F10x_StdPeriph_Driver/src/stm32f10x_rcc.c ****   * @param  NewState: new state of the specified peripheral reset.
1130:Libraries/STM32F10x_StdPeriph_Driver/src/stm32f10x_rcc.c ****   *   This parameter can be: ENABLE or DISABLE.
1131:Libraries/STM32F10x_StdPeriph_Driver/src/stm32f10x_rcc.c ****   * @retval None
1132:Libraries/STM32F10x_StdPeriph_Driver/src/stm32f10x_rcc.c ****   */
1133:Libraries/STM32F10x_StdPeriph_Driver/src/stm32f10x_rcc.c **** void RCC_AHBPeriphResetCmd(uint32_t RCC_AHBPeriph, FunctionalState NewState)
1134:Libraries/STM32F10x_StdPeriph_Driver/src/stm32f10x_rcc.c **** {
1135:Libraries/STM32F10x_StdPeriph_Driver/src/stm32f10x_rcc.c ****   /* Check the parameters */
1136:Libraries/STM32F10x_StdPeriph_Driver/src/stm32f10x_rcc.c ****   assert_param(IS_RCC_AHB_PERIPH_RESET(RCC_AHBPeriph));
1137:Libraries/STM32F10x_StdPeriph_Driver/src/stm32f10x_rcc.c ****   assert_param(IS_FUNCTIONAL_STATE(NewState));
1138:Libraries/STM32F10x_StdPeriph_Driver/src/stm32f10x_rcc.c **** 
1139:Libraries/STM32F10x_StdPeriph_Driver/src/stm32f10x_rcc.c ****   if (NewState != DISABLE)
1140:Libraries/STM32F10x_StdPeriph_Driver/src/stm32f10x_rcc.c ****   {
1141:Libraries/STM32F10x_StdPeriph_Driver/src/stm32f10x_rcc.c ****     RCC->AHBRSTR |= RCC_AHBPeriph;
1142:Libraries/STM32F10x_StdPeriph_Driver/src/stm32f10x_rcc.c ****   }
1143:Libraries/STM32F10x_StdPeriph_Driver/src/stm32f10x_rcc.c ****   else
1144:Libraries/STM32F10x_StdPeriph_Driver/src/stm32f10x_rcc.c ****   {
1145:Libraries/STM32F10x_StdPeriph_Driver/src/stm32f10x_rcc.c ****     RCC->AHBRSTR &= ~RCC_AHBPeriph;
1146:Libraries/STM32F10x_StdPeriph_Driver/src/stm32f10x_rcc.c ****   }
1147:Libraries/STM32F10x_StdPeriph_Driver/src/stm32f10x_rcc.c **** }
1148:Libraries/STM32F10x_StdPeriph_Driver/src/stm32f10x_rcc.c **** #endif /* STM32F10X_CL */ 
1149:Libraries/STM32F10x_StdPeriph_Driver/src/stm32f10x_rcc.c **** 
1150:Libraries/STM32F10x_StdPeriph_Driver/src/stm32f10x_rcc.c **** /**
1151:Libraries/STM32F10x_StdPeriph_Driver/src/stm32f10x_rcc.c ****   * @brief  Forces or releases High Speed APB (APB2) peripheral reset.
1152:Libraries/STM32F10x_StdPeriph_Driver/src/stm32f10x_rcc.c ****   * @param  RCC_APB2Periph: specifies the APB2 peripheral to reset.
1153:Libraries/STM32F10x_StdPeriph_Driver/src/stm32f10x_rcc.c ****   *   This parameter can be any combination of the following values:
1154:Libraries/STM32F10x_StdPeriph_Driver/src/stm32f10x_rcc.c ****   *     @arg RCC_APB2Periph_AFIO, RCC_APB2Periph_GPIOA, RCC_APB2Periph_GPIOB,
1155:Libraries/STM32F10x_StdPeriph_Driver/src/stm32f10x_rcc.c ****   *          RCC_APB2Periph_GPIOC, RCC_APB2Periph_GPIOD, RCC_APB2Periph_GPIOE,
1156:Libraries/STM32F10x_StdPeriph_Driver/src/stm32f10x_rcc.c ****   *          RCC_APB2Periph_GPIOF, RCC_APB2Periph_GPIOG, RCC_APB2Periph_ADC1,
1157:Libraries/STM32F10x_StdPeriph_Driver/src/stm32f10x_rcc.c ****   *          RCC_APB2Periph_ADC2, RCC_APB2Periph_TIM1, RCC_APB2Periph_SPI1,
1158:Libraries/STM32F10x_StdPeriph_Driver/src/stm32f10x_rcc.c ****   *          RCC_APB2Periph_TIM8, RCC_APB2Periph_USART1, RCC_APB2Periph_ADC3
1159:Libraries/STM32F10x_StdPeriph_Driver/src/stm32f10x_rcc.c ****   * @param  NewState: new state of the specified peripheral reset.
1160:Libraries/STM32F10x_StdPeriph_Driver/src/stm32f10x_rcc.c ****   *   This parameter can be: ENABLE or DISABLE.
1161:Libraries/STM32F10x_StdPeriph_Driver/src/stm32f10x_rcc.c ****   * @retval None
1162:Libraries/STM32F10x_StdPeriph_Driver/src/stm32f10x_rcc.c ****   */
1163:Libraries/STM32F10x_StdPeriph_Driver/src/stm32f10x_rcc.c **** void RCC_APB2PeriphResetCmd(uint32_t RCC_APB2Periph, FunctionalState NewState)
1164:Libraries/STM32F10x_StdPeriph_Driver/src/stm32f10x_rcc.c **** {
1165:Libraries/STM32F10x_StdPeriph_Driver/src/stm32f10x_rcc.c ****   /* Check the parameters */
1166:Libraries/STM32F10x_StdPeriph_Driver/src/stm32f10x_rcc.c ****   assert_param(IS_RCC_APB2_PERIPH(RCC_APB2Periph));
1167:Libraries/STM32F10x_StdPeriph_Driver/src/stm32f10x_rcc.c ****   assert_param(IS_FUNCTIONAL_STATE(NewState));
1168:Libraries/STM32F10x_StdPeriph_Driver/src/stm32f10x_rcc.c ****   if (NewState != DISABLE)
1169:Libraries/STM32F10x_StdPeriph_Driver/src/stm32f10x_rcc.c ****   {
1170:Libraries/STM32F10x_StdPeriph_Driver/src/stm32f10x_rcc.c ****     RCC->APB2RSTR |= RCC_APB2Periph;
1171:Libraries/STM32F10x_StdPeriph_Driver/src/stm32f10x_rcc.c ****   }
1172:Libraries/STM32F10x_StdPeriph_Driver/src/stm32f10x_rcc.c ****   else
1173:Libraries/STM32F10x_StdPeriph_Driver/src/stm32f10x_rcc.c ****   {
1174:Libraries/STM32F10x_StdPeriph_Driver/src/stm32f10x_rcc.c ****     RCC->APB2RSTR &= ~RCC_APB2Periph;
1175:Libraries/STM32F10x_StdPeriph_Driver/src/stm32f10x_rcc.c ****   }
1176:Libraries/STM32F10x_StdPeriph_Driver/src/stm32f10x_rcc.c **** }
1177:Libraries/STM32F10x_StdPeriph_Driver/src/stm32f10x_rcc.c **** 
1178:Libraries/STM32F10x_StdPeriph_Driver/src/stm32f10x_rcc.c **** /**
1179:Libraries/STM32F10x_StdPeriph_Driver/src/stm32f10x_rcc.c ****   * @brief  Forces or releases Low Speed APB (APB1) peripheral reset.
1180:Libraries/STM32F10x_StdPeriph_Driver/src/stm32f10x_rcc.c ****   * @param  RCC_APB1Periph: specifies the APB1 peripheral to reset.
1181:Libraries/STM32F10x_StdPeriph_Driver/src/stm32f10x_rcc.c ****   *   This parameter can be any combination of the following values:
1182:Libraries/STM32F10x_StdPeriph_Driver/src/stm32f10x_rcc.c ****   *     @arg RCC_APB1Periph_TIM2, RCC_APB1Periph_TIM3, RCC_APB1Periph_TIM4,
1183:Libraries/STM32F10x_StdPeriph_Driver/src/stm32f10x_rcc.c ****   *          RCC_APB1Periph_TIM5, RCC_APB1Periph_TIM6, RCC_APB1Periph_TIM7,
1184:Libraries/STM32F10x_StdPeriph_Driver/src/stm32f10x_rcc.c ****   *          RCC_APB1Periph_WWDG, RCC_APB1Periph_SPI2, RCC_APB1Periph_SPI3,
1185:Libraries/STM32F10x_StdPeriph_Driver/src/stm32f10x_rcc.c ****   *          RCC_APB1Periph_USART2, RCC_APB1Periph_USART3, RCC_APB1Periph_USART4, 
1186:Libraries/STM32F10x_StdPeriph_Driver/src/stm32f10x_rcc.c ****   *          RCC_APB1Periph_USART5, RCC_APB1Periph_I2C1, RCC_APB1Periph_I2C2,
1187:Libraries/STM32F10x_StdPeriph_Driver/src/stm32f10x_rcc.c ****   *          RCC_APB1Periph_USB, RCC_APB1Periph_CAN1, RCC_APB1Periph_BKP,
1188:Libraries/STM32F10x_StdPeriph_Driver/src/stm32f10x_rcc.c ****   *          RCC_APB1Periph_PWR, RCC_APB1Periph_DAC
1189:Libraries/STM32F10x_StdPeriph_Driver/src/stm32f10x_rcc.c ****   * @param  NewState: new state of the specified peripheral clock.
1190:Libraries/STM32F10x_StdPeriph_Driver/src/stm32f10x_rcc.c ****   *   This parameter can be: ENABLE or DISABLE.
1191:Libraries/STM32F10x_StdPeriph_Driver/src/stm32f10x_rcc.c ****   * @retval None
1192:Libraries/STM32F10x_StdPeriph_Driver/src/stm32f10x_rcc.c ****   */
1193:Libraries/STM32F10x_StdPeriph_Driver/src/stm32f10x_rcc.c **** void RCC_APB1PeriphResetCmd(uint32_t RCC_APB1Periph, FunctionalState NewState)
1194:Libraries/STM32F10x_StdPeriph_Driver/src/stm32f10x_rcc.c **** {
1195:Libraries/STM32F10x_StdPeriph_Driver/src/stm32f10x_rcc.c ****   /* Check the parameters */
1196:Libraries/STM32F10x_StdPeriph_Driver/src/stm32f10x_rcc.c ****   assert_param(IS_RCC_APB1_PERIPH(RCC_APB1Periph));
1197:Libraries/STM32F10x_StdPeriph_Driver/src/stm32f10x_rcc.c ****   assert_param(IS_FUNCTIONAL_STATE(NewState));
1198:Libraries/STM32F10x_StdPeriph_Driver/src/stm32f10x_rcc.c ****   if (NewState != DISABLE)
1199:Libraries/STM32F10x_StdPeriph_Driver/src/stm32f10x_rcc.c ****   {
1200:Libraries/STM32F10x_StdPeriph_Driver/src/stm32f10x_rcc.c ****     RCC->APB1RSTR |= RCC_APB1Periph;
1201:Libraries/STM32F10x_StdPeriph_Driver/src/stm32f10x_rcc.c ****   }
1202:Libraries/STM32F10x_StdPeriph_Driver/src/stm32f10x_rcc.c ****   else
1203:Libraries/STM32F10x_StdPeriph_Driver/src/stm32f10x_rcc.c ****   {
1204:Libraries/STM32F10x_StdPeriph_Driver/src/stm32f10x_rcc.c ****     RCC->APB1RSTR &= ~RCC_APB1Periph;
1205:Libraries/STM32F10x_StdPeriph_Driver/src/stm32f10x_rcc.c ****   }
1206:Libraries/STM32F10x_StdPeriph_Driver/src/stm32f10x_rcc.c **** }
1207:Libraries/STM32F10x_StdPeriph_Driver/src/stm32f10x_rcc.c **** 
1208:Libraries/STM32F10x_StdPeriph_Driver/src/stm32f10x_rcc.c **** /**
1209:Libraries/STM32F10x_StdPeriph_Driver/src/stm32f10x_rcc.c ****   * @brief  Forces or releases the Backup domain reset.
1210:Libraries/STM32F10x_StdPeriph_Driver/src/stm32f10x_rcc.c ****   * @param  NewState: new state of the Backup domain reset.
1211:Libraries/STM32F10x_StdPeriph_Driver/src/stm32f10x_rcc.c ****   *   This parameter can be: ENABLE or DISABLE.
1212:Libraries/STM32F10x_StdPeriph_Driver/src/stm32f10x_rcc.c ****   * @retval None
1213:Libraries/STM32F10x_StdPeriph_Driver/src/stm32f10x_rcc.c ****   */
1214:Libraries/STM32F10x_StdPeriph_Driver/src/stm32f10x_rcc.c **** void RCC_BackupResetCmd(FunctionalState NewState)
1215:Libraries/STM32F10x_StdPeriph_Driver/src/stm32f10x_rcc.c **** {
1216:Libraries/STM32F10x_StdPeriph_Driver/src/stm32f10x_rcc.c ****   /* Check the parameters */
1217:Libraries/STM32F10x_StdPeriph_Driver/src/stm32f10x_rcc.c ****   assert_param(IS_FUNCTIONAL_STATE(NewState));
1218:Libraries/STM32F10x_StdPeriph_Driver/src/stm32f10x_rcc.c ****   *(__IO uint32_t *) BDCR_BDRST_BB = (uint32_t)NewState;
1219:Libraries/STM32F10x_StdPeriph_Driver/src/stm32f10x_rcc.c **** }
1220:Libraries/STM32F10x_StdPeriph_Driver/src/stm32f10x_rcc.c **** 
1221:Libraries/STM32F10x_StdPeriph_Driver/src/stm32f10x_rcc.c **** /**
1222:Libraries/STM32F10x_StdPeriph_Driver/src/stm32f10x_rcc.c ****   * @brief  Enables or disables the Clock Security System.
1223:Libraries/STM32F10x_StdPeriph_Driver/src/stm32f10x_rcc.c ****   * @param  NewState: new state of the Clock Security System..
1224:Libraries/STM32F10x_StdPeriph_Driver/src/stm32f10x_rcc.c ****   *   This parameter can be: ENABLE or DISABLE.
1225:Libraries/STM32F10x_StdPeriph_Driver/src/stm32f10x_rcc.c ****   * @retval None
1226:Libraries/STM32F10x_StdPeriph_Driver/src/stm32f10x_rcc.c ****   */
1227:Libraries/STM32F10x_StdPeriph_Driver/src/stm32f10x_rcc.c **** void RCC_ClockSecuritySystemCmd(FunctionalState NewState)
1228:Libraries/STM32F10x_StdPeriph_Driver/src/stm32f10x_rcc.c **** {
1229:Libraries/STM32F10x_StdPeriph_Driver/src/stm32f10x_rcc.c ****   /* Check the parameters */
1230:Libraries/STM32F10x_StdPeriph_Driver/src/stm32f10x_rcc.c ****   assert_param(IS_FUNCTIONAL_STATE(NewState));
1231:Libraries/STM32F10x_StdPeriph_Driver/src/stm32f10x_rcc.c ****   *(__IO uint32_t *) CR_CSSON_BB = (uint32_t)NewState;
1232:Libraries/STM32F10x_StdPeriph_Driver/src/stm32f10x_rcc.c **** }
1233:Libraries/STM32F10x_StdPeriph_Driver/src/stm32f10x_rcc.c **** 
1234:Libraries/STM32F10x_StdPeriph_Driver/src/stm32f10x_rcc.c **** /**
1235:Libraries/STM32F10x_StdPeriph_Driver/src/stm32f10x_rcc.c ****   * @brief  Selects the clock source to output on MCO pin.
1236:Libraries/STM32F10x_StdPeriph_Driver/src/stm32f10x_rcc.c ****   * @param  RCC_MCO: specifies the clock source to output.
1237:Libraries/STM32F10x_StdPeriph_Driver/src/stm32f10x_rcc.c ****   *   
1238:Libraries/STM32F10x_StdPeriph_Driver/src/stm32f10x_rcc.c ****   *   For @b STM32_Connectivity_line_devices, this parameter can be one of the
1239:Libraries/STM32F10x_StdPeriph_Driver/src/stm32f10x_rcc.c ****   *   following values:       
1240:Libraries/STM32F10x_StdPeriph_Driver/src/stm32f10x_rcc.c ****   *     @arg RCC_MCO_NoClock: No clock selected
1241:Libraries/STM32F10x_StdPeriph_Driver/src/stm32f10x_rcc.c ****   *     @arg RCC_MCO_SYSCLK: System clock selected
1242:Libraries/STM32F10x_StdPeriph_Driver/src/stm32f10x_rcc.c ****   *     @arg RCC_MCO_HSI: HSI oscillator clock selected
1243:Libraries/STM32F10x_StdPeriph_Driver/src/stm32f10x_rcc.c ****   *     @arg RCC_MCO_HSE: HSE oscillator clock selected
1244:Libraries/STM32F10x_StdPeriph_Driver/src/stm32f10x_rcc.c ****   *     @arg RCC_MCO_PLLCLK_Div2: PLL clock divided by 2 selected
1245:Libraries/STM32F10x_StdPeriph_Driver/src/stm32f10x_rcc.c ****   *     @arg RCC_MCO_PLL2CLK: PLL2 clock selected                     
1246:Libraries/STM32F10x_StdPeriph_Driver/src/stm32f10x_rcc.c ****   *     @arg RCC_MCO_PLL3CLK_Div2: PLL3 clock divided by 2 selected   
1247:Libraries/STM32F10x_StdPeriph_Driver/src/stm32f10x_rcc.c ****   *     @arg RCC_MCO_XT1: External 3-25 MHz oscillator clock selected  
1248:Libraries/STM32F10x_StdPeriph_Driver/src/stm32f10x_rcc.c ****   *     @arg RCC_MCO_PLL3CLK: PLL3 clock selected 
1249:Libraries/STM32F10x_StdPeriph_Driver/src/stm32f10x_rcc.c ****   * 
1250:Libraries/STM32F10x_StdPeriph_Driver/src/stm32f10x_rcc.c ****   *   For  @b other_STM32_devices, this parameter can be one of the following values:        
1251:Libraries/STM32F10x_StdPeriph_Driver/src/stm32f10x_rcc.c ****   *     @arg RCC_MCO_NoClock: No clock selected
1252:Libraries/STM32F10x_StdPeriph_Driver/src/stm32f10x_rcc.c ****   *     @arg RCC_MCO_SYSCLK: System clock selected
1253:Libraries/STM32F10x_StdPeriph_Driver/src/stm32f10x_rcc.c ****   *     @arg RCC_MCO_HSI: HSI oscillator clock selected
1254:Libraries/STM32F10x_StdPeriph_Driver/src/stm32f10x_rcc.c ****   *     @arg RCC_MCO_HSE: HSE oscillator clock selected
1255:Libraries/STM32F10x_StdPeriph_Driver/src/stm32f10x_rcc.c ****   *     @arg RCC_MCO_PLLCLK_Div2: PLL clock divided by 2 selected
1256:Libraries/STM32F10x_StdPeriph_Driver/src/stm32f10x_rcc.c ****   *   
1257:Libraries/STM32F10x_StdPeriph_Driver/src/stm32f10x_rcc.c ****   * @retval None
1258:Libraries/STM32F10x_StdPeriph_Driver/src/stm32f10x_rcc.c ****   */
1259:Libraries/STM32F10x_StdPeriph_Driver/src/stm32f10x_rcc.c **** void RCC_MCOConfig(uint8_t RCC_MCO)
1260:Libraries/STM32F10x_StdPeriph_Driver/src/stm32f10x_rcc.c **** {
1261:Libraries/STM32F10x_StdPeriph_Driver/src/stm32f10x_rcc.c ****   /* Check the parameters */
1262:Libraries/STM32F10x_StdPeriph_Driver/src/stm32f10x_rcc.c ****   assert_param(IS_RCC_MCO(RCC_MCO));
1263:Libraries/STM32F10x_StdPeriph_Driver/src/stm32f10x_rcc.c **** 
1264:Libraries/STM32F10x_StdPeriph_Driver/src/stm32f10x_rcc.c ****   /* Perform Byte access to MCO bits to select the MCO source */
1265:Libraries/STM32F10x_StdPeriph_Driver/src/stm32f10x_rcc.c ****   *(__IO uint8_t *) CFGR_BYTE4_ADDRESS = RCC_MCO;
1266:Libraries/STM32F10x_StdPeriph_Driver/src/stm32f10x_rcc.c **** }
1267:Libraries/STM32F10x_StdPeriph_Driver/src/stm32f10x_rcc.c **** 
1268:Libraries/STM32F10x_StdPeriph_Driver/src/stm32f10x_rcc.c **** /**
1269:Libraries/STM32F10x_StdPeriph_Driver/src/stm32f10x_rcc.c ****   * @brief  Checks whether the specified RCC flag is set or not.
1270:Libraries/STM32F10x_StdPeriph_Driver/src/stm32f10x_rcc.c ****   * @param  RCC_FLAG: specifies the flag to check.
1271:Libraries/STM32F10x_StdPeriph_Driver/src/stm32f10x_rcc.c ****   *   
1272:Libraries/STM32F10x_StdPeriph_Driver/src/stm32f10x_rcc.c ****   *   For @b STM32_Connectivity_line_devices, this parameter can be one of the
1273:Libraries/STM32F10x_StdPeriph_Driver/src/stm32f10x_rcc.c ****   *   following values:
1274:Libraries/STM32F10x_StdPeriph_Driver/src/stm32f10x_rcc.c ****   *     @arg RCC_FLAG_HSIRDY: HSI oscillator clock ready
1275:Libraries/STM32F10x_StdPeriph_Driver/src/stm32f10x_rcc.c ****   *     @arg RCC_FLAG_HSERDY: HSE oscillator clock ready
1276:Libraries/STM32F10x_StdPeriph_Driver/src/stm32f10x_rcc.c ****   *     @arg RCC_FLAG_PLLRDY: PLL clock ready
1277:Libraries/STM32F10x_StdPeriph_Driver/src/stm32f10x_rcc.c ****   *     @arg RCC_FLAG_PLL2RDY: PLL2 clock ready      
1278:Libraries/STM32F10x_StdPeriph_Driver/src/stm32f10x_rcc.c ****   *     @arg RCC_FLAG_PLL3RDY: PLL3 clock ready                           
1279:Libraries/STM32F10x_StdPeriph_Driver/src/stm32f10x_rcc.c ****   *     @arg RCC_FLAG_LSERDY: LSE oscillator clock ready
1280:Libraries/STM32F10x_StdPeriph_Driver/src/stm32f10x_rcc.c ****   *     @arg RCC_FLAG_LSIRDY: LSI oscillator clock ready
1281:Libraries/STM32F10x_StdPeriph_Driver/src/stm32f10x_rcc.c ****   *     @arg RCC_FLAG_PINRST: Pin reset
1282:Libraries/STM32F10x_StdPeriph_Driver/src/stm32f10x_rcc.c ****   *     @arg RCC_FLAG_PORRST: POR/PDR reset
1283:Libraries/STM32F10x_StdPeriph_Driver/src/stm32f10x_rcc.c ****   *     @arg RCC_FLAG_SFTRST: Software reset
1284:Libraries/STM32F10x_StdPeriph_Driver/src/stm32f10x_rcc.c ****   *     @arg RCC_FLAG_IWDGRST: Independent Watchdog reset
1285:Libraries/STM32F10x_StdPeriph_Driver/src/stm32f10x_rcc.c ****   *     @arg RCC_FLAG_WWDGRST: Window Watchdog reset
1286:Libraries/STM32F10x_StdPeriph_Driver/src/stm32f10x_rcc.c ****   *     @arg RCC_FLAG_LPWRRST: Low Power reset
1287:Libraries/STM32F10x_StdPeriph_Driver/src/stm32f10x_rcc.c ****   * 
1288:Libraries/STM32F10x_StdPeriph_Driver/src/stm32f10x_rcc.c ****   *   For @b other_STM32_devices, this parameter can be one of the following values:        
1289:Libraries/STM32F10x_StdPeriph_Driver/src/stm32f10x_rcc.c ****   *     @arg RCC_FLAG_HSIRDY: HSI oscillator clock ready
1290:Libraries/STM32F10x_StdPeriph_Driver/src/stm32f10x_rcc.c ****   *     @arg RCC_FLAG_HSERDY: HSE oscillator clock ready
1291:Libraries/STM32F10x_StdPeriph_Driver/src/stm32f10x_rcc.c ****   *     @arg RCC_FLAG_PLLRDY: PLL clock ready
1292:Libraries/STM32F10x_StdPeriph_Driver/src/stm32f10x_rcc.c ****   *     @arg RCC_FLAG_LSERDY: LSE oscillator clock ready
1293:Libraries/STM32F10x_StdPeriph_Driver/src/stm32f10x_rcc.c ****   *     @arg RCC_FLAG_LSIRDY: LSI oscillator clock ready
1294:Libraries/STM32F10x_StdPeriph_Driver/src/stm32f10x_rcc.c ****   *     @arg RCC_FLAG_PINRST: Pin reset
1295:Libraries/STM32F10x_StdPeriph_Driver/src/stm32f10x_rcc.c ****   *     @arg RCC_FLAG_PORRST: POR/PDR reset
1296:Libraries/STM32F10x_StdPeriph_Driver/src/stm32f10x_rcc.c ****   *     @arg RCC_FLAG_SFTRST: Software reset
1297:Libraries/STM32F10x_StdPeriph_Driver/src/stm32f10x_rcc.c ****   *     @arg RCC_FLAG_IWDGRST: Independent Watchdog reset
1298:Libraries/STM32F10x_StdPeriph_Driver/src/stm32f10x_rcc.c ****   *     @arg RCC_FLAG_WWDGRST: Window Watchdog reset
1299:Libraries/STM32F10x_StdPeriph_Driver/src/stm32f10x_rcc.c ****   *     @arg RCC_FLAG_LPWRRST: Low Power reset
1300:Libraries/STM32F10x_StdPeriph_Driver/src/stm32f10x_rcc.c ****   *   
1301:Libraries/STM32F10x_StdPeriph_Driver/src/stm32f10x_rcc.c ****   * @retval The new state of RCC_FLAG (SET or RESET).
1302:Libraries/STM32F10x_StdPeriph_Driver/src/stm32f10x_rcc.c ****   */
1303:Libraries/STM32F10x_StdPeriph_Driver/src/stm32f10x_rcc.c **** FlagStatus RCC_GetFlagStatus(uint8_t RCC_FLAG)
1304:Libraries/STM32F10x_StdPeriph_Driver/src/stm32f10x_rcc.c **** {
1305:Libraries/STM32F10x_StdPeriph_Driver/src/stm32f10x_rcc.c ****   uint32_t tmp = 0;
1306:Libraries/STM32F10x_StdPeriph_Driver/src/stm32f10x_rcc.c ****   uint32_t statusreg = 0;
1307:Libraries/STM32F10x_StdPeriph_Driver/src/stm32f10x_rcc.c ****   FlagStatus bitstatus = RESET;
1308:Libraries/STM32F10x_StdPeriph_Driver/src/stm32f10x_rcc.c ****   /* Check the parameters */
1309:Libraries/STM32F10x_StdPeriph_Driver/src/stm32f10x_rcc.c ****   assert_param(IS_RCC_FLAG(RCC_FLAG));
1310:Libraries/STM32F10x_StdPeriph_Driver/src/stm32f10x_rcc.c **** 
1311:Libraries/STM32F10x_StdPeriph_Driver/src/stm32f10x_rcc.c ****   /* Get the RCC register index */
1312:Libraries/STM32F10x_StdPeriph_Driver/src/stm32f10x_rcc.c ****   tmp = RCC_FLAG >> 5;
1313:Libraries/STM32F10x_StdPeriph_Driver/src/stm32f10x_rcc.c ****   if (tmp == 1)               /* The flag to check is in CR register */
1314:Libraries/STM32F10x_StdPeriph_Driver/src/stm32f10x_rcc.c ****   {
1315:Libraries/STM32F10x_StdPeriph_Driver/src/stm32f10x_rcc.c ****     statusreg = RCC->CR;
 150              		.loc 1 1315 0
 151 0004 094A     		ldr	r2, .L18
 152              	.LBE7:
 153              	.LBE6:
 306:Libraries/STM32F10x_StdPeriph_Driver/src/stm32f10x_rcc.c ****   ErrorStatus status = ERROR;
 154              		.loc 1 306 0
 155 0006 0193     		str	r3, [sp, #4]
 156              	.LVL1:
 157              	.L15:
 158              	.LBB10:
 159              	.LBB8:
 160              		.loc 1 1315 0 discriminator 2
 161 0008 1368     		ldr	r3, [r2]
 162              	.LVL2:
1316:Libraries/STM32F10x_StdPeriph_Driver/src/stm32f10x_rcc.c ****   }
1317:Libraries/STM32F10x_StdPeriph_Driver/src/stm32f10x_rcc.c ****   else if (tmp == 2)          /* The flag to check is in BDCR register */
1318:Libraries/STM32F10x_StdPeriph_Driver/src/stm32f10x_rcc.c ****   {
1319:Libraries/STM32F10x_StdPeriph_Driver/src/stm32f10x_rcc.c ****     statusreg = RCC->BDCR;
1320:Libraries/STM32F10x_StdPeriph_Driver/src/stm32f10x_rcc.c ****   }
1321:Libraries/STM32F10x_StdPeriph_Driver/src/stm32f10x_rcc.c ****   else                       /* The flag to check is in CSR register */
1322:Libraries/STM32F10x_StdPeriph_Driver/src/stm32f10x_rcc.c ****   {
1323:Libraries/STM32F10x_StdPeriph_Driver/src/stm32f10x_rcc.c ****     statusreg = RCC->CSR;
1324:Libraries/STM32F10x_StdPeriph_Driver/src/stm32f10x_rcc.c ****   }
1325:Libraries/STM32F10x_StdPeriph_Driver/src/stm32f10x_rcc.c **** 
1326:Libraries/STM32F10x_StdPeriph_Driver/src/stm32f10x_rcc.c ****   /* Get the flag position */
1327:Libraries/STM32F10x_StdPeriph_Driver/src/stm32f10x_rcc.c ****   tmp = RCC_FLAG & FLAG_Mask;
1328:Libraries/STM32F10x_StdPeriph_Driver/src/stm32f10x_rcc.c ****   if ((statusreg & ((uint32_t)1 << tmp)) != (uint32_t)RESET)
 163              		.loc 1 1328 0 discriminator 2
 164 000a 13F4003F 		tst	r3, #131072
 165              	.LBE8:
 166              	.LBE10:
 314:Libraries/STM32F10x_StdPeriph_Driver/src/stm32f10x_rcc.c ****   } while((StartUpCounter != HSEStartUp_TimeOut) && (HSEStatus == RESET));
 167              		.loc 1 314 0 discriminator 2
 168 000e 019B     		ldr	r3, [sp, #4]
 169              	.LVL3:
 170 0010 03F10103 		add	r3, r3, #1
 171 0014 0193     		str	r3, [sp, #4]
 315:Libraries/STM32F10x_StdPeriph_Driver/src/stm32f10x_rcc.c ****   
 172              		.loc 1 315 0 discriminator 2
 173 0016 019B     		ldr	r3, [sp, #4]
 174              	.LBB11:
 175              	.LBB9:
 176              		.loc 1 1328 0 discriminator 2
 177 0018 02D1     		bne	.L14
 178              	.LBE9:
 179              	.LBE11:
 315:Libraries/STM32F10x_StdPeriph_Driver/src/stm32f10x_rcc.c ****   
 180              		.loc 1 315 0
 181 001a B3F5A06F 		cmp	r3, #1280
 182 001e F3D1     		bne	.L15
 183              	.L14:
 184              	.LVL4:
 185              	.LBB12:
 186              	.LBB13:
1315:Libraries/STM32F10x_StdPeriph_Driver/src/stm32f10x_rcc.c ****   }
 187              		.loc 1 1315 0
 188 0020 024B     		ldr	r3, .L18
 189 0022 1868     		ldr	r0, [r3]
 190              	.LVL5:
 191              	.LBE13:
 192              	.LBE12:
 326:Libraries/STM32F10x_StdPeriph_Driver/src/stm32f10x_rcc.c **** 
 193              		.loc 1 326 0
 194 0024 C0F34040 		ubfx	r0, r0, #17, #1
 195              	.LVL6:
 196 0028 02B0     		add	sp, sp, #8
 197              	.LCFI1:
 198              		.cfi_def_cfa_offset 0
 199              		@ sp needed
 200 002a 7047     		bx	lr
 201              	.L19:
 202              		.align	2
 203              	.L18:
 204 002c 00100240 		.word	1073876992
 205              		.cfi_endproc
 206              	.LFE29:
 208              		.section	.text.RCC_AdjustHSICalibrationValue,"ax",%progbits
 209              		.align	1
 210              		.p2align 2,,3
 211              		.global	RCC_AdjustHSICalibrationValue
 212              		.syntax unified
 213              		.thumb
 214              		.thumb_func
 215              		.fpu softvfp
 217              	RCC_AdjustHSICalibrationValue:
 218              	.LFB30:
 335:Libraries/STM32F10x_StdPeriph_Driver/src/stm32f10x_rcc.c ****   uint32_t tmpreg = 0;
 219              		.loc 1 335 0
 220              		.cfi_startproc
 221              		@ args = 0, pretend = 0, frame = 0
 222              		@ frame_needed = 0, uses_anonymous_args = 0
 223              		@ link register save eliminated.
 224              	.LVL7:
 339:Libraries/STM32F10x_StdPeriph_Driver/src/stm32f10x_rcc.c ****   /* Clear HSITRIM[4:0] bits */
 225              		.loc 1 339 0
 226 0000 034A     		ldr	r2, .L21
 227 0002 1368     		ldr	r3, [r2]
 228              	.LVL8:
 341:Libraries/STM32F10x_StdPeriph_Driver/src/stm32f10x_rcc.c ****   /* Set the HSITRIM[4:0] bits according to HSICalibrationValue value */
 229              		.loc 1 341 0
 230 0004 23F0F803 		bic	r3, r3, #248
 231              	.LVL9:
 343:Libraries/STM32F10x_StdPeriph_Driver/src/stm32f10x_rcc.c ****   /* Store the new value */
 232              		.loc 1 343 0
 233 0008 43EAC000 		orr	r0, r3, r0, lsl #3
 234              	.LVL10:
 345:Libraries/STM32F10x_StdPeriph_Driver/src/stm32f10x_rcc.c **** }
 235              		.loc 1 345 0
 236 000c 1060     		str	r0, [r2]
 346:Libraries/STM32F10x_StdPeriph_Driver/src/stm32f10x_rcc.c **** 
 237              		.loc 1 346 0
 238 000e 7047     		bx	lr
 239              	.L22:
 240              		.align	2
 241              	.L21:
 242 0010 00100240 		.word	1073876992
 243              		.cfi_endproc
 244              	.LFE30:
 246              		.section	.text.RCC_HSICmd,"ax",%progbits
 247              		.align	1
 248              		.p2align 2,,3
 249              		.global	RCC_HSICmd
 250              		.syntax unified
 251              		.thumb
 252              		.thumb_func
 253              		.fpu softvfp
 255              	RCC_HSICmd:
 256              	.LFB31:
 355:Libraries/STM32F10x_StdPeriph_Driver/src/stm32f10x_rcc.c ****   /* Check the parameters */
 257              		.loc 1 355 0
 258              		.cfi_startproc
 259              		@ args = 0, pretend = 0, frame = 0
 260              		@ frame_needed = 0, uses_anonymous_args = 0
 261              		@ link register save eliminated.
 262              	.LVL11:
 358:Libraries/STM32F10x_StdPeriph_Driver/src/stm32f10x_rcc.c **** }
 263              		.loc 1 358 0
 264 0000 014B     		ldr	r3, .L24
 265 0002 1860     		str	r0, [r3]
 359:Libraries/STM32F10x_StdPeriph_Driver/src/stm32f10x_rcc.c **** 
 266              		.loc 1 359 0
 267 0004 7047     		bx	lr
 268              	.L25:
 269 0006 00BF     		.align	2
 270              	.L24:
 271 0008 00004242 		.word	1111621632
 272              		.cfi_endproc
 273              	.LFE31:
 275              		.section	.text.RCC_PLLConfig,"ax",%progbits
 276              		.align	1
 277              		.p2align 2,,3
 278              		.global	RCC_PLLConfig
 279              		.syntax unified
 280              		.thumb
 281              		.thumb_func
 282              		.fpu softvfp
 284              	RCC_PLLConfig:
 285              	.LFB32:
 379:Libraries/STM32F10x_StdPeriph_Driver/src/stm32f10x_rcc.c ****   uint32_t tmpreg = 0;
 286              		.loc 1 379 0
 287              		.cfi_startproc
 288              		@ args = 0, pretend = 0, frame = 0
 289              		@ frame_needed = 0, uses_anonymous_args = 0
 290              		@ link register save eliminated.
 291              	.LVL12:
 386:Libraries/STM32F10x_StdPeriph_Driver/src/stm32f10x_rcc.c ****   /* Clear PLLSRC, PLLXTPRE and PLLMUL[3:0] bits */
 292              		.loc 1 386 0
 293 0000 034A     		ldr	r2, .L27
 294 0002 5368     		ldr	r3, [r2, #4]
 295              	.LVL13:
 388:Libraries/STM32F10x_StdPeriph_Driver/src/stm32f10x_rcc.c ****   /* Set the PLL configuration bits */
 296              		.loc 1 388 0
 297 0004 23F47C13 		bic	r3, r3, #4128768
 298              	.LVL14:
 299 0008 1943     		orrs	r1, r1, r3
 300              	.LVL15:
 390:Libraries/STM32F10x_StdPeriph_Driver/src/stm32f10x_rcc.c ****   /* Store the new value */
 301              		.loc 1 390 0
 302 000a 0143     		orrs	r1, r1, r0
 303              	.LVL16:
 392:Libraries/STM32F10x_StdPeriph_Driver/src/stm32f10x_rcc.c **** }
 304              		.loc 1 392 0
 305 000c 5160     		str	r1, [r2, #4]
 393:Libraries/STM32F10x_StdPeriph_Driver/src/stm32f10x_rcc.c **** 
 306              		.loc 1 393 0
 307 000e 7047     		bx	lr
 308              	.L28:
 309              		.align	2
 310              	.L27:
 311 0010 00100240 		.word	1073876992
 312              		.cfi_endproc
 313              	.LFE32:
 315              		.section	.text.RCC_PLLCmd,"ax",%progbits
 316              		.align	1
 317              		.p2align 2,,3
 318              		.global	RCC_PLLCmd
 319              		.syntax unified
 320              		.thumb
 321              		.thumb_func
 322              		.fpu softvfp
 324              	RCC_PLLCmd:
 325              	.LFB33:
 402:Libraries/STM32F10x_StdPeriph_Driver/src/stm32f10x_rcc.c ****   /* Check the parameters */
 326              		.loc 1 402 0
 327              		.cfi_startproc
 328              		@ args = 0, pretend = 0, frame = 0
 329              		@ frame_needed = 0, uses_anonymous_args = 0
 330              		@ link register save eliminated.
 331              	.LVL17:
 406:Libraries/STM32F10x_StdPeriph_Driver/src/stm32f10x_rcc.c **** }
 332              		.loc 1 406 0
 333 0000 014B     		ldr	r3, .L30
 334 0002 1860     		str	r0, [r3]
 407:Libraries/STM32F10x_StdPeriph_Driver/src/stm32f10x_rcc.c **** 
 335              		.loc 1 407 0
 336 0004 7047     		bx	lr
 337              	.L31:
 338 0006 00BF     		.align	2
 339              	.L30:
 340 0008 60004242 		.word	1111621728
 341              		.cfi_endproc
 342              	.LFE33:
 344              		.section	.text.RCC_SYSCLKConfig,"ax",%progbits
 345              		.align	1
 346              		.p2align 2,,3
 347              		.global	RCC_SYSCLKConfig
 348              		.syntax unified
 349              		.thumb
 350              		.thumb_func
 351              		.fpu softvfp
 353              	RCC_SYSCLKConfig:
 354              	.LFB34:
 561:Libraries/STM32F10x_StdPeriph_Driver/src/stm32f10x_rcc.c ****   uint32_t tmpreg = 0;
 355              		.loc 1 561 0
 356              		.cfi_startproc
 357              		@ args = 0, pretend = 0, frame = 0
 358              		@ frame_needed = 0, uses_anonymous_args = 0
 359              		@ link register save eliminated.
 360              	.LVL18:
 565:Libraries/STM32F10x_StdPeriph_Driver/src/stm32f10x_rcc.c ****   /* Clear SW[1:0] bits */
 361              		.loc 1 565 0
 362 0000 034A     		ldr	r2, .L33
 363 0002 5368     		ldr	r3, [r2, #4]
 364              	.LVL19:
 567:Libraries/STM32F10x_StdPeriph_Driver/src/stm32f10x_rcc.c ****   /* Set SW[1:0] bits according to RCC_SYSCLKSource value */
 365              		.loc 1 567 0
 366 0004 23F00303 		bic	r3, r3, #3
 367              	.LVL20:
 569:Libraries/STM32F10x_StdPeriph_Driver/src/stm32f10x_rcc.c ****   /* Store the new value */
 368              		.loc 1 569 0
 369 0008 1843     		orrs	r0, r0, r3
 370              	.LVL21:
 571:Libraries/STM32F10x_StdPeriph_Driver/src/stm32f10x_rcc.c **** }
 371              		.loc 1 571 0
 372 000a 5060     		str	r0, [r2, #4]
 572:Libraries/STM32F10x_StdPeriph_Driver/src/stm32f10x_rcc.c **** 
 373              		.loc 1 572 0
 374 000c 7047     		bx	lr
 375              	.L34:
 376 000e 00BF     		.align	2
 377              	.L33:
 378 0010 00100240 		.word	1073876992
 379              		.cfi_endproc
 380              	.LFE34:
 382              		.section	.text.RCC_GetSYSCLKSource,"ax",%progbits
 383              		.align	1
 384              		.p2align 2,,3
 385              		.global	RCC_GetSYSCLKSource
 386              		.syntax unified
 387              		.thumb
 388              		.thumb_func
 389              		.fpu softvfp
 391              	RCC_GetSYSCLKSource:
 392              	.LFB35:
 584:Libraries/STM32F10x_StdPeriph_Driver/src/stm32f10x_rcc.c ****   return ((uint8_t)(RCC->CFGR & CFGR_SWS_Mask));
 393              		.loc 1 584 0
 394              		.cfi_startproc
 395              		@ args = 0, pretend = 0, frame = 0
 396              		@ frame_needed = 0, uses_anonymous_args = 0
 397              		@ link register save eliminated.
 585:Libraries/STM32F10x_StdPeriph_Driver/src/stm32f10x_rcc.c **** }
 398              		.loc 1 585 0
 399 0000 024B     		ldr	r3, .L36
 400 0002 5868     		ldr	r0, [r3, #4]
 586:Libraries/STM32F10x_StdPeriph_Driver/src/stm32f10x_rcc.c **** 
 401              		.loc 1 586 0
 402 0004 00F00C00 		and	r0, r0, #12
 403 0008 7047     		bx	lr
 404              	.L37:
 405 000a 00BF     		.align	2
 406              	.L36:
 407 000c 00100240 		.word	1073876992
 408              		.cfi_endproc
 409              	.LFE35:
 411              		.section	.text.RCC_HCLKConfig,"ax",%progbits
 412              		.align	1
 413              		.p2align 2,,3
 414              		.global	RCC_HCLKConfig
 415              		.syntax unified
 416              		.thumb
 417              		.thumb_func
 418              		.fpu softvfp
 420              	RCC_HCLKConfig:
 421              	.LFB36:
 605:Libraries/STM32F10x_StdPeriph_Driver/src/stm32f10x_rcc.c ****   uint32_t tmpreg = 0;
 422              		.loc 1 605 0
 423              		.cfi_startproc
 424              		@ args = 0, pretend = 0, frame = 0
 425              		@ frame_needed = 0, uses_anonymous_args = 0
 426              		@ link register save eliminated.
 427              	.LVL22:
 609:Libraries/STM32F10x_StdPeriph_Driver/src/stm32f10x_rcc.c ****   /* Clear HPRE[3:0] bits */
 428              		.loc 1 609 0
 429 0000 034A     		ldr	r2, .L39
 430 0002 5368     		ldr	r3, [r2, #4]
 431              	.LVL23:
 611:Libraries/STM32F10x_StdPeriph_Driver/src/stm32f10x_rcc.c ****   /* Set HPRE[3:0] bits according to RCC_SYSCLK value */
 432              		.loc 1 611 0
 433 0004 23F0F003 		bic	r3, r3, #240
 434              	.LVL24:
 613:Libraries/STM32F10x_StdPeriph_Driver/src/stm32f10x_rcc.c ****   /* Store the new value */
 435              		.loc 1 613 0
 436 0008 1843     		orrs	r0, r0, r3
 437              	.LVL25:
 615:Libraries/STM32F10x_StdPeriph_Driver/src/stm32f10x_rcc.c **** }
 438              		.loc 1 615 0
 439 000a 5060     		str	r0, [r2, #4]
 616:Libraries/STM32F10x_StdPeriph_Driver/src/stm32f10x_rcc.c **** 
 440              		.loc 1 616 0
 441 000c 7047     		bx	lr
 442              	.L40:
 443 000e 00BF     		.align	2
 444              	.L39:
 445 0010 00100240 		.word	1073876992
 446              		.cfi_endproc
 447              	.LFE36:
 449              		.section	.text.RCC_PCLK1Config,"ax",%progbits
 450              		.align	1
 451              		.p2align 2,,3
 452              		.global	RCC_PCLK1Config
 453              		.syntax unified
 454              		.thumb
 455              		.thumb_func
 456              		.fpu softvfp
 458              	RCC_PCLK1Config:
 459              	.LFB37:
 631:Libraries/STM32F10x_StdPeriph_Driver/src/stm32f10x_rcc.c ****   uint32_t tmpreg = 0;
 460              		.loc 1 631 0
 461              		.cfi_startproc
 462              		@ args = 0, pretend = 0, frame = 0
 463              		@ frame_needed = 0, uses_anonymous_args = 0
 464              		@ link register save eliminated.
 465              	.LVL26:
 635:Libraries/STM32F10x_StdPeriph_Driver/src/stm32f10x_rcc.c ****   /* Clear PPRE1[2:0] bits */
 466              		.loc 1 635 0
 467 0000 034A     		ldr	r2, .L42
 468 0002 5368     		ldr	r3, [r2, #4]
 469              	.LVL27:
 637:Libraries/STM32F10x_StdPeriph_Driver/src/stm32f10x_rcc.c ****   /* Set PPRE1[2:0] bits according to RCC_HCLK value */
 470              		.loc 1 637 0
 471 0004 23F4E063 		bic	r3, r3, #1792
 472              	.LVL28:
 639:Libraries/STM32F10x_StdPeriph_Driver/src/stm32f10x_rcc.c ****   /* Store the new value */
 473              		.loc 1 639 0
 474 0008 1843     		orrs	r0, r0, r3
 475              	.LVL29:
 641:Libraries/STM32F10x_StdPeriph_Driver/src/stm32f10x_rcc.c **** }
 476              		.loc 1 641 0
 477 000a 5060     		str	r0, [r2, #4]
 642:Libraries/STM32F10x_StdPeriph_Driver/src/stm32f10x_rcc.c **** 
 478              		.loc 1 642 0
 479 000c 7047     		bx	lr
 480              	.L43:
 481 000e 00BF     		.align	2
 482              	.L42:
 483 0010 00100240 		.word	1073876992
 484              		.cfi_endproc
 485              	.LFE37:
 487              		.section	.text.RCC_PCLK2Config,"ax",%progbits
 488              		.align	1
 489              		.p2align 2,,3
 490              		.global	RCC_PCLK2Config
 491              		.syntax unified
 492              		.thumb
 493              		.thumb_func
 494              		.fpu softvfp
 496              	RCC_PCLK2Config:
 497              	.LFB38:
 657:Libraries/STM32F10x_StdPeriph_Driver/src/stm32f10x_rcc.c ****   uint32_t tmpreg = 0;
 498              		.loc 1 657 0
 499              		.cfi_startproc
 500              		@ args = 0, pretend = 0, frame = 0
 501              		@ frame_needed = 0, uses_anonymous_args = 0
 502              		@ link register save eliminated.
 503              	.LVL30:
 661:Libraries/STM32F10x_StdPeriph_Driver/src/stm32f10x_rcc.c ****   /* Clear PPRE2[2:0] bits */
 504              		.loc 1 661 0
 505 0000 034A     		ldr	r2, .L45
 506 0002 5368     		ldr	r3, [r2, #4]
 507              	.LVL31:
 663:Libraries/STM32F10x_StdPeriph_Driver/src/stm32f10x_rcc.c ****   /* Set PPRE2[2:0] bits according to RCC_HCLK value */
 508              		.loc 1 663 0
 509 0004 23F46053 		bic	r3, r3, #14336
 510              	.LVL32:
 665:Libraries/STM32F10x_StdPeriph_Driver/src/stm32f10x_rcc.c ****   /* Store the new value */
 511              		.loc 1 665 0
 512 0008 43EAC000 		orr	r0, r3, r0, lsl #3
 513              	.LVL33:
 667:Libraries/STM32F10x_StdPeriph_Driver/src/stm32f10x_rcc.c **** }
 514              		.loc 1 667 0
 515 000c 5060     		str	r0, [r2, #4]
 668:Libraries/STM32F10x_StdPeriph_Driver/src/stm32f10x_rcc.c **** 
 516              		.loc 1 668 0
 517 000e 7047     		bx	lr
 518              	.L46:
 519              		.align	2
 520              	.L45:
 521 0010 00100240 		.word	1073876992
 522              		.cfi_endproc
 523              	.LFE38:
 525              		.section	.text.RCC_ITConfig,"ax",%progbits
 526              		.align	1
 527              		.p2align 2,,3
 528              		.global	RCC_ITConfig
 529              		.syntax unified
 530              		.thumb
 531              		.thumb_func
 532              		.fpu softvfp
 534              	RCC_ITConfig:
 535              	.LFB39:
 697:Libraries/STM32F10x_StdPeriph_Driver/src/stm32f10x_rcc.c ****   /* Check the parameters */
 536              		.loc 1 697 0
 537              		.cfi_startproc
 538              		@ args = 0, pretend = 0, frame = 0
 539              		@ frame_needed = 0, uses_anonymous_args = 0
 540              		@ link register save eliminated.
 541              	.LVL34:
 704:Libraries/STM32F10x_StdPeriph_Driver/src/stm32f10x_rcc.c ****   }
 542              		.loc 1 704 0
 543 0000 044A     		ldr	r2, .L51
 544 0002 1378     		ldrb	r3, [r2]	@ zero_extendqisi2
 701:Libraries/STM32F10x_StdPeriph_Driver/src/stm32f10x_rcc.c ****   {
 545              		.loc 1 701 0
 546 0004 19B9     		cbnz	r1, .L50
 709:Libraries/STM32F10x_StdPeriph_Driver/src/stm32f10x_rcc.c ****   }
 547              		.loc 1 709 0
 548 0006 23EA0000 		bic	r0, r3, r0
 549              	.LVL35:
 550 000a 1070     		strb	r0, [r2]
 711:Libraries/STM32F10x_StdPeriph_Driver/src/stm32f10x_rcc.c **** 
 551              		.loc 1 711 0
 552 000c 7047     		bx	lr
 553              	.LVL36:
 554              	.L50:
 704:Libraries/STM32F10x_StdPeriph_Driver/src/stm32f10x_rcc.c ****   }
 555              		.loc 1 704 0
 556 000e 1843     		orrs	r0, r0, r3
 557              	.LVL37:
 558 0010 1070     		strb	r0, [r2]
 559 0012 7047     		bx	lr
 560              	.L52:
 561              		.align	2
 562              	.L51:
 563 0014 09100240 		.word	1073877001
 564              		.cfi_endproc
 565              	.LFE39:
 567              		.section	.text.RCC_USBCLKConfig,"ax",%progbits
 568              		.align	1
 569              		.p2align 2,,3
 570              		.global	RCC_USBCLKConfig
 571              		.syntax unified
 572              		.thumb
 573              		.thumb_func
 574              		.fpu softvfp
 576              	RCC_USBCLKConfig:
 577              	.LFB40:
 725:Libraries/STM32F10x_StdPeriph_Driver/src/stm32f10x_rcc.c ****   /* Check the parameters */
 578              		.loc 1 725 0
 579              		.cfi_startproc
 580              		@ args = 0, pretend = 0, frame = 0
 581              		@ frame_needed = 0, uses_anonymous_args = 0
 582              		@ link register save eliminated.
 583              	.LVL38:
 729:Libraries/STM32F10x_StdPeriph_Driver/src/stm32f10x_rcc.c **** }
 584              		.loc 1 729 0
 585 0000 014B     		ldr	r3, .L54
 586 0002 1860     		str	r0, [r3]
 730:Libraries/STM32F10x_StdPeriph_Driver/src/stm32f10x_rcc.c **** #else
 587              		.loc 1 730 0
 588 0004 7047     		bx	lr
 589              	.L55:
 590 0006 00BF     		.align	2
 591              	.L54:
 592 0008 D8004242 		.word	1111621848
 593              		.cfi_endproc
 594              	.LFE40:
 596              		.section	.text.RCC_ADCCLKConfig,"ax",%progbits
 597              		.align	1
 598              		.p2align 2,,3
 599              		.global	RCC_ADCCLKConfig
 600              		.syntax unified
 601              		.thumb
 602              		.thumb_func
 603              		.fpu softvfp
 605              	RCC_ADCCLKConfig:
 606              	.LFB41:
 763:Libraries/STM32F10x_StdPeriph_Driver/src/stm32f10x_rcc.c ****   uint32_t tmpreg = 0;
 607              		.loc 1 763 0
 608              		.cfi_startproc
 609              		@ args = 0, pretend = 0, frame = 0
 610              		@ frame_needed = 0, uses_anonymous_args = 0
 611              		@ link register save eliminated.
 612              	.LVL39:
 767:Libraries/STM32F10x_StdPeriph_Driver/src/stm32f10x_rcc.c ****   /* Clear ADCPRE[1:0] bits */
 613              		.loc 1 767 0
 614 0000 034A     		ldr	r2, .L57
 615 0002 5368     		ldr	r3, [r2, #4]
 616              	.LVL40:
 769:Libraries/STM32F10x_StdPeriph_Driver/src/stm32f10x_rcc.c ****   /* Set ADCPRE[1:0] bits according to RCC_PCLK2 value */
 617              		.loc 1 769 0
 618 0004 23F44043 		bic	r3, r3, #49152
 619              	.LVL41:
 771:Libraries/STM32F10x_StdPeriph_Driver/src/stm32f10x_rcc.c ****   /* Store the new value */
 620              		.loc 1 771 0
 621 0008 1843     		orrs	r0, r0, r3
 622              	.LVL42:
 773:Libraries/STM32F10x_StdPeriph_Driver/src/stm32f10x_rcc.c **** }
 623              		.loc 1 773 0
 624 000a 5060     		str	r0, [r2, #4]
 774:Libraries/STM32F10x_StdPeriph_Driver/src/stm32f10x_rcc.c **** 
 625              		.loc 1 774 0
 626 000c 7047     		bx	lr
 627              	.L58:
 628 000e 00BF     		.align	2
 629              	.L57:
 630 0010 00100240 		.word	1073876992
 631              		.cfi_endproc
 632              	.LFE41:
 634              		.section	.text.RCC_LSEConfig,"ax",%progbits
 635              		.align	1
 636              		.p2align 2,,3
 637              		.global	RCC_LSEConfig
 638              		.syntax unified
 639              		.thumb
 640              		.thumb_func
 641              		.fpu softvfp
 643              	RCC_LSEConfig:
 644              	.LFB42:
 826:Libraries/STM32F10x_StdPeriph_Driver/src/stm32f10x_rcc.c ****   /* Check the parameters */
 645              		.loc 1 826 0
 646              		.cfi_startproc
 647              		@ args = 0, pretend = 0, frame = 0
 648              		@ frame_needed = 0, uses_anonymous_args = 0
 649              		@ link register save eliminated.
 650              	.LVL43:
 831:Libraries/STM32F10x_StdPeriph_Driver/src/stm32f10x_rcc.c ****   /* Reset LSEBYP bit */
 651              		.loc 1 831 0
 652 0000 0022     		movs	r2, #0
 653 0002 064B     		ldr	r3, .L64
 835:Libraries/STM32F10x_StdPeriph_Driver/src/stm32f10x_rcc.c ****   {
 654              		.loc 1 835 0
 655 0004 0128     		cmp	r0, #1
 831:Libraries/STM32F10x_StdPeriph_Driver/src/stm32f10x_rcc.c ****   /* Reset LSEBYP bit */
 656              		.loc 1 831 0
 657 0006 1A70     		strb	r2, [r3]
 833:Libraries/STM32F10x_StdPeriph_Driver/src/stm32f10x_rcc.c ****   /* Configure LSE (RCC_LSE_OFF is already covered by the code section above) */
 658              		.loc 1 833 0
 659 0008 1A70     		strb	r2, [r3]
 835:Libraries/STM32F10x_StdPeriph_Driver/src/stm32f10x_rcc.c ****   {
 660              		.loc 1 835 0
 661 000a 05D0     		beq	.L61
 662 000c 0428     		cmp	r0, #4
 663 000e 02D1     		bne	.L63
 844:Libraries/STM32F10x_StdPeriph_Driver/src/stm32f10x_rcc.c ****       break;            
 664              		.loc 1 844 0
 665 0010 0522     		movs	r2, #5
 666 0012 1A70     		strb	r2, [r3]
 850:Libraries/STM32F10x_StdPeriph_Driver/src/stm32f10x_rcc.c **** 
 667              		.loc 1 850 0
 668 0014 7047     		bx	lr
 669              	.L63:
 670 0016 7047     		bx	lr
 671              	.L61:
 839:Libraries/STM32F10x_StdPeriph_Driver/src/stm32f10x_rcc.c ****       break;
 672              		.loc 1 839 0
 673 0018 1870     		strb	r0, [r3]
 840:Libraries/STM32F10x_StdPeriph_Driver/src/stm32f10x_rcc.c ****       
 674              		.loc 1 840 0
 675 001a 7047     		bx	lr
 676              	.L65:
 677              		.align	2
 678              	.L64:
 679 001c 20100240 		.word	1073877024
 680              		.cfi_endproc
 681              	.LFE42:
 683              		.section	.text.RCC_LSICmd,"ax",%progbits
 684              		.align	1
 685              		.p2align 2,,3
 686              		.global	RCC_LSICmd
 687              		.syntax unified
 688              		.thumb
 689              		.thumb_func
 690              		.fpu softvfp
 692              	RCC_LSICmd:
 693              	.LFB43:
 859:Libraries/STM32F10x_StdPeriph_Driver/src/stm32f10x_rcc.c ****   /* Check the parameters */
 694              		.loc 1 859 0
 695              		.cfi_startproc
 696              		@ args = 0, pretend = 0, frame = 0
 697              		@ frame_needed = 0, uses_anonymous_args = 0
 698              		@ link register save eliminated.
 699              	.LVL44:
 862:Libraries/STM32F10x_StdPeriph_Driver/src/stm32f10x_rcc.c **** }
 700              		.loc 1 862 0
 701 0000 014B     		ldr	r3, .L67
 702 0002 1860     		str	r0, [r3]
 863:Libraries/STM32F10x_StdPeriph_Driver/src/stm32f10x_rcc.c **** 
 703              		.loc 1 863 0
 704 0004 7047     		bx	lr
 705              	.L68:
 706 0006 00BF     		.align	2
 707              	.L67:
 708 0008 80044242 		.word	1111622784
 709              		.cfi_endproc
 710              	.LFE43:
 712              		.section	.text.RCC_RTCCLKConfig,"ax",%progbits
 713              		.align	1
 714              		.p2align 2,,3
 715              		.global	RCC_RTCCLKConfig
 716              		.syntax unified
 717              		.thumb
 718              		.thumb_func
 719              		.fpu softvfp
 721              	RCC_RTCCLKConfig:
 722              	.LFB44:
 876:Libraries/STM32F10x_StdPeriph_Driver/src/stm32f10x_rcc.c ****   /* Check the parameters */
 723              		.loc 1 876 0
 724              		.cfi_startproc
 725              		@ args = 0, pretend = 0, frame = 0
 726              		@ frame_needed = 0, uses_anonymous_args = 0
 727              		@ link register save eliminated.
 728              	.LVL45:
 880:Libraries/STM32F10x_StdPeriph_Driver/src/stm32f10x_rcc.c **** }
 729              		.loc 1 880 0
 730 0000 024A     		ldr	r2, .L70
 731 0002 136A     		ldr	r3, [r2, #32]
 732 0004 1843     		orrs	r0, r0, r3
 733              	.LVL46:
 734 0006 1062     		str	r0, [r2, #32]
 881:Libraries/STM32F10x_StdPeriph_Driver/src/stm32f10x_rcc.c **** 
 735              		.loc 1 881 0
 736 0008 7047     		bx	lr
 737              	.L71:
 738 000a 00BF     		.align	2
 739              	.L70:
 740 000c 00100240 		.word	1073876992
 741              		.cfi_endproc
 742              	.LFE44:
 744              		.section	.text.RCC_RTCCLKCmd,"ax",%progbits
 745              		.align	1
 746              		.p2align 2,,3
 747              		.global	RCC_RTCCLKCmd
 748              		.syntax unified
 749              		.thumb
 750              		.thumb_func
 751              		.fpu softvfp
 753              	RCC_RTCCLKCmd:
 754              	.LFB45:
 890:Libraries/STM32F10x_StdPeriph_Driver/src/stm32f10x_rcc.c ****   /* Check the parameters */
 755              		.loc 1 890 0
 756              		.cfi_startproc
 757              		@ args = 0, pretend = 0, frame = 0
 758              		@ frame_needed = 0, uses_anonymous_args = 0
 759              		@ link register save eliminated.
 760              	.LVL47:
 893:Libraries/STM32F10x_StdPeriph_Driver/src/stm32f10x_rcc.c **** }
 761              		.loc 1 893 0
 762 0000 014B     		ldr	r3, .L73
 763 0002 1860     		str	r0, [r3]
 894:Libraries/STM32F10x_StdPeriph_Driver/src/stm32f10x_rcc.c **** 
 764              		.loc 1 894 0
 765 0004 7047     		bx	lr
 766              	.L74:
 767 0006 00BF     		.align	2
 768              	.L73:
 769 0008 3C044242 		.word	1111622716
 770              		.cfi_endproc
 771              	.LFE45:
 773              		.section	.text.RCC_GetClocksFreq,"ax",%progbits
 774              		.align	1
 775              		.p2align 2,,3
 776              		.global	RCC_GetClocksFreq
 777              		.syntax unified
 778              		.thumb
 779              		.thumb_func
 780              		.fpu softvfp
 782              	RCC_GetClocksFreq:
 783              	.LFB46:
 903:Libraries/STM32F10x_StdPeriph_Driver/src/stm32f10x_rcc.c ****   uint32_t tmp = 0, pllmull = 0, pllsource = 0, presc = 0;
 784              		.loc 1 903 0
 785              		.cfi_startproc
 786              		@ args = 0, pretend = 0, frame = 0
 787              		@ frame_needed = 0, uses_anonymous_args = 0
 788              		@ link register save eliminated.
 789              	.LVL48:
 911:Libraries/STM32F10x_StdPeriph_Driver/src/stm32f10x_rcc.c ****   
 790              		.loc 1 911 0
 791 0000 1E4A     		ldr	r2, .L84
 903:Libraries/STM32F10x_StdPeriph_Driver/src/stm32f10x_rcc.c ****   uint32_t tmp = 0, pllmull = 0, pllsource = 0, presc = 0;
 792              		.loc 1 903 0
 793 0002 30B4     		push	{r4, r5}
 794              	.LCFI2:
 795              		.cfi_def_cfa_offset 8
 796              		.cfi_offset 4, -8
 797              		.cfi_offset 5, -4
 911:Libraries/STM32F10x_StdPeriph_Driver/src/stm32f10x_rcc.c ****   
 798              		.loc 1 911 0
 799 0004 5368     		ldr	r3, [r2, #4]
 800              	.LVL49:
 801 0006 03F00C03 		and	r3, r3, #12
 802              	.LVL50:
 913:Libraries/STM32F10x_StdPeriph_Driver/src/stm32f10x_rcc.c ****   {
 803              		.loc 1 913 0
 804 000a 082B     		cmp	r3, #8
 805 000c 0FD1     		bne	.L83
 924:Libraries/STM32F10x_StdPeriph_Driver/src/stm32f10x_rcc.c ****       pllsource = RCC->CFGR & CFGR_PLLSRC_Mask;
 806              		.loc 1 924 0
 807 000e 5368     		ldr	r3, [r2, #4]
 808              	.LVL51:
 925:Libraries/STM32F10x_StdPeriph_Driver/src/stm32f10x_rcc.c ****       
 809              		.loc 1 925 0
 810 0010 5168     		ldr	r1, [r2, #4]
 811              	.LVL52:
 928:Libraries/STM32F10x_StdPeriph_Driver/src/stm32f10x_rcc.c ****       
 812              		.loc 1 928 0
 813 0012 C3F38343 		ubfx	r3, r3, #18, #4
 814              	.LVL53:
 930:Libraries/STM32F10x_StdPeriph_Driver/src/stm32f10x_rcc.c ****       {/* HSI oscillator clock divided by 2 selected as PLL clock entry */
 815              		.loc 1 930 0
 816 0016 C903     		lsls	r1, r1, #15
 817              	.LVL54:
 928:Libraries/STM32F10x_StdPeriph_Driver/src/stm32f10x_rcc.c ****       
 818              		.loc 1 928 0
 819 0018 03F10203 		add	r3, r3, #2
 820              	.LVL55:
 930:Libraries/STM32F10x_StdPeriph_Driver/src/stm32f10x_rcc.c ****       {/* HSI oscillator clock divided by 2 selected as PLL clock entry */
 821              		.loc 1 930 0
 822 001c 28D5     		bpl	.L82
 936:Libraries/STM32F10x_StdPeriph_Driver/src/stm32f10x_rcc.c ****         {/* HSE oscillator clock divided by 2 */
 823              		.loc 1 936 0
 824 001e 5268     		ldr	r2, [r2, #4]
 825 0020 9203     		lsls	r2, r2, #14
 826 0022 25D4     		bmi	.L82
 942:Libraries/STM32F10x_StdPeriph_Driver/src/stm32f10x_rcc.c ****         }
 827              		.loc 1 942 0
 828 0024 164A     		ldr	r2, .L84+4
 829 0026 02FB03F3 		mul	r3, r2, r3
 830              	.LVL56:
 831 002a 0360     		str	r3, [r0]
 832 002c 01E0     		b	.L78
 833              	.LVL57:
 834              	.L83:
 916:Libraries/STM32F10x_StdPeriph_Driver/src/stm32f10x_rcc.c ****       break;
 835              		.loc 1 916 0
 836 002e 144B     		ldr	r3, .L84+4
 837              	.LVL58:
 838 0030 0360     		str	r3, [r0]
 839              	.LVL59:
 840              	.L78:
 991:Libraries/STM32F10x_StdPeriph_Driver/src/stm32f10x_rcc.c ****   tmp = tmp >> 4;
 841              		.loc 1 991 0
 842 0032 124A     		ldr	r2, .L84
 993:Libraries/STM32F10x_StdPeriph_Driver/src/stm32f10x_rcc.c ****   /* HCLK clock frequency */
 843              		.loc 1 993 0
 844 0034 134C     		ldr	r4, .L84+8
 991:Libraries/STM32F10x_StdPeriph_Driver/src/stm32f10x_rcc.c ****   tmp = tmp >> 4;
 845              		.loc 1 991 0
 846 0036 5168     		ldr	r1, [r2, #4]
 847              	.LVL60:
1011:Libraries/STM32F10x_StdPeriph_Driver/src/stm32f10x_rcc.c ****   /* ADCCLK clock frequency */
 848              		.loc 1 1011 0
 849 0038 134D     		ldr	r5, .L84+12
 992:Libraries/STM32F10x_StdPeriph_Driver/src/stm32f10x_rcc.c ****   presc = APBAHBPrescTable[tmp];
 850              		.loc 1 992 0
 851 003a C1F30311 		ubfx	r1, r1, #4, #4
 852              	.LVL61:
 993:Libraries/STM32F10x_StdPeriph_Driver/src/stm32f10x_rcc.c ****   /* HCLK clock frequency */
 853              		.loc 1 993 0
 854 003e 615C     		ldrb	r1, [r4, r1]	@ zero_extendqisi2
 855              	.LVL62:
 995:Libraries/STM32F10x_StdPeriph_Driver/src/stm32f10x_rcc.c ****   /* Get PCLK1 prescaler */
 856              		.loc 1 995 0
 857 0040 CB40     		lsrs	r3, r3, r1
 858 0042 4360     		str	r3, [r0, #4]
 997:Libraries/STM32F10x_StdPeriph_Driver/src/stm32f10x_rcc.c ****   tmp = tmp >> 8;
 859              		.loc 1 997 0
 860 0044 5168     		ldr	r1, [r2, #4]
 861              	.LVL63:
 998:Libraries/STM32F10x_StdPeriph_Driver/src/stm32f10x_rcc.c ****   presc = APBAHBPrescTable[tmp];
 862              		.loc 1 998 0
 863 0046 C1F30221 		ubfx	r1, r1, #8, #3
 864              	.LVL64:
 999:Libraries/STM32F10x_StdPeriph_Driver/src/stm32f10x_rcc.c ****   /* PCLK1 clock frequency */
 865              		.loc 1 999 0
 866 004a 615C     		ldrb	r1, [r4, r1]	@ zero_extendqisi2
 867              	.LVL65:
1001:Libraries/STM32F10x_StdPeriph_Driver/src/stm32f10x_rcc.c ****   /* Get PCLK2 prescaler */
 868              		.loc 1 1001 0
 869 004c 23FA01F1 		lsr	r1, r3, r1
 870              	.LVL66:
 871 0050 8160     		str	r1, [r0, #8]
1003:Libraries/STM32F10x_StdPeriph_Driver/src/stm32f10x_rcc.c ****   tmp = tmp >> 11;
 872              		.loc 1 1003 0
 873 0052 5168     		ldr	r1, [r2, #4]
 874              	.LVL67:
1004:Libraries/STM32F10x_StdPeriph_Driver/src/stm32f10x_rcc.c ****   presc = APBAHBPrescTable[tmp];
 875              		.loc 1 1004 0
 876 0054 C1F3C221 		ubfx	r1, r1, #11, #3
 877              	.LVL68:
1005:Libraries/STM32F10x_StdPeriph_Driver/src/stm32f10x_rcc.c ****   /* PCLK2 clock frequency */
 878              		.loc 1 1005 0
 879 0058 615C     		ldrb	r1, [r4, r1]	@ zero_extendqisi2
 880              	.LVL69:
1007:Libraries/STM32F10x_StdPeriph_Driver/src/stm32f10x_rcc.c ****   /* Get ADCCLK prescaler */
 881              		.loc 1 1007 0
 882 005a CB40     		lsrs	r3, r3, r1
 883 005c C360     		str	r3, [r0, #12]
1009:Libraries/STM32F10x_StdPeriph_Driver/src/stm32f10x_rcc.c ****   tmp = tmp >> 14;
 884              		.loc 1 1009 0
 885 005e 5268     		ldr	r2, [r2, #4]
 886              	.LVL70:
1010:Libraries/STM32F10x_StdPeriph_Driver/src/stm32f10x_rcc.c ****   presc = ADCPrescTable[tmp];
 887              		.loc 1 1010 0
 888 0060 C2F38132 		ubfx	r2, r2, #14, #2
 889              	.LVL71:
1011:Libraries/STM32F10x_StdPeriph_Driver/src/stm32f10x_rcc.c ****   /* ADCCLK clock frequency */
 890              		.loc 1 1011 0
 891 0064 AA5C     		ldrb	r2, [r5, r2]	@ zero_extendqisi2
 892              	.LVL72:
1014:Libraries/STM32F10x_StdPeriph_Driver/src/stm32f10x_rcc.c **** 
 893              		.loc 1 1014 0
 894 0066 30BC     		pop	{r4, r5}
 895              	.LCFI3:
 896              		.cfi_remember_state
 897              		.cfi_restore 5
 898              		.cfi_restore 4
 899              		.cfi_def_cfa_offset 0
1013:Libraries/STM32F10x_StdPeriph_Driver/src/stm32f10x_rcc.c **** }
 900              		.loc 1 1013 0
 901 0068 B3FBF2F3 		udiv	r3, r3, r2
 902 006c 0361     		str	r3, [r0, #16]
1014:Libraries/STM32F10x_StdPeriph_Driver/src/stm32f10x_rcc.c **** 
 903              		.loc 1 1014 0
 904 006e 7047     		bx	lr
 905              	.LVL73:
 906              	.L82:
 907              	.LCFI4:
 908              		.cfi_restore_state
 938:Libraries/STM32F10x_StdPeriph_Driver/src/stm32f10x_rcc.c ****         }
 909              		.loc 1 938 0
 910 0070 064A     		ldr	r2, .L84+16
 911 0072 02FB03F3 		mul	r3, r2, r3
 912              	.LVL74:
 913 0076 0360     		str	r3, [r0]
 914 0078 DBE7     		b	.L78
 915              	.L85:
 916 007a 00BF     		.align	2
 917              	.L84:
 918 007c 00100240 		.word	1073876992
 919 0080 00127A00 		.word	8000000
 920 0084 00000000 		.word	.LANCHOR0
 921 0088 00000000 		.word	.LANCHOR1
 922 008c 00093D00 		.word	4000000
 923              		.cfi_endproc
 924              	.LFE46:
 926              		.section	.text.RCC_AHBPeriphClockCmd,"ax",%progbits
 927              		.align	1
 928              		.p2align 2,,3
 929              		.global	RCC_AHBPeriphClockCmd
 930              		.syntax unified
 931              		.thumb
 932              		.thumb_func
 933              		.fpu softvfp
 935              	RCC_AHBPeriphClockCmd:
 936              	.LFB47:
1048:Libraries/STM32F10x_StdPeriph_Driver/src/stm32f10x_rcc.c ****   /* Check the parameters */
 937              		.loc 1 1048 0
 938              		.cfi_startproc
 939              		@ args = 0, pretend = 0, frame = 0
 940              		@ frame_needed = 0, uses_anonymous_args = 0
 941              		@ link register save eliminated.
 942              	.LVL75:
1055:Libraries/STM32F10x_StdPeriph_Driver/src/stm32f10x_rcc.c ****   }
 943              		.loc 1 1055 0
 944 0000 044A     		ldr	r2, .L90
 945 0002 5369     		ldr	r3, [r2, #20]
1053:Libraries/STM32F10x_StdPeriph_Driver/src/stm32f10x_rcc.c ****   {
 946              		.loc 1 1053 0
 947 0004 19B9     		cbnz	r1, .L89
1059:Libraries/STM32F10x_StdPeriph_Driver/src/stm32f10x_rcc.c ****   }
 948              		.loc 1 1059 0
 949 0006 23EA0000 		bic	r0, r3, r0
 950              	.LVL76:
 951 000a 5061     		str	r0, [r2, #20]
1061:Libraries/STM32F10x_StdPeriph_Driver/src/stm32f10x_rcc.c **** 
 952              		.loc 1 1061 0
 953 000c 7047     		bx	lr
 954              	.LVL77:
 955              	.L89:
1055:Libraries/STM32F10x_StdPeriph_Driver/src/stm32f10x_rcc.c ****   }
 956              		.loc 1 1055 0
 957 000e 1843     		orrs	r0, r0, r3
 958              	.LVL78:
 959 0010 5061     		str	r0, [r2, #20]
 960 0012 7047     		bx	lr
 961              	.L91:
 962              		.align	2
 963              	.L90:
 964 0014 00100240 		.word	1073876992
 965              		.cfi_endproc
 966              	.LFE47:
 968              		.section	.text.RCC_APB2PeriphClockCmd,"ax",%progbits
 969              		.align	1
 970              		.p2align 2,,3
 971              		.global	RCC_APB2PeriphClockCmd
 972              		.syntax unified
 973              		.thumb
 974              		.thumb_func
 975              		.fpu softvfp
 977              	RCC_APB2PeriphClockCmd:
 978              	.LFB48:
1077:Libraries/STM32F10x_StdPeriph_Driver/src/stm32f10x_rcc.c ****   /* Check the parameters */
 979              		.loc 1 1077 0
 980              		.cfi_startproc
 981              		@ args = 0, pretend = 0, frame = 0
 982              		@ frame_needed = 0, uses_anonymous_args = 0
 983              		@ link register save eliminated.
 984              	.LVL79:
1083:Libraries/STM32F10x_StdPeriph_Driver/src/stm32f10x_rcc.c ****   }
 985              		.loc 1 1083 0
 986 0000 044A     		ldr	r2, .L96
 987 0002 9369     		ldr	r3, [r2, #24]
1081:Libraries/STM32F10x_StdPeriph_Driver/src/stm32f10x_rcc.c ****   {
 988              		.loc 1 1081 0
 989 0004 19B9     		cbnz	r1, .L95
1087:Libraries/STM32F10x_StdPeriph_Driver/src/stm32f10x_rcc.c ****   }
 990              		.loc 1 1087 0
 991 0006 23EA0000 		bic	r0, r3, r0
 992              	.LVL80:
 993 000a 9061     		str	r0, [r2, #24]
1089:Libraries/STM32F10x_StdPeriph_Driver/src/stm32f10x_rcc.c **** 
 994              		.loc 1 1089 0
 995 000c 7047     		bx	lr
 996              	.LVL81:
 997              	.L95:
1083:Libraries/STM32F10x_StdPeriph_Driver/src/stm32f10x_rcc.c ****   }
 998              		.loc 1 1083 0
 999 000e 1843     		orrs	r0, r0, r3
 1000              	.LVL82:
 1001 0010 9061     		str	r0, [r2, #24]
 1002 0012 7047     		bx	lr
 1003              	.L97:
 1004              		.align	2
 1005              	.L96:
 1006 0014 00100240 		.word	1073876992
 1007              		.cfi_endproc
 1008              	.LFE48:
 1010              		.section	.text.RCC_APB1PeriphClockCmd,"ax",%progbits
 1011              		.align	1
 1012              		.p2align 2,,3
 1013              		.global	RCC_APB1PeriphClockCmd
 1014              		.syntax unified
 1015              		.thumb
 1016              		.thumb_func
 1017              		.fpu softvfp
 1019              	RCC_APB1PeriphClockCmd:
 1020              	.LFB49:
1107:Libraries/STM32F10x_StdPeriph_Driver/src/stm32f10x_rcc.c ****   /* Check the parameters */
 1021              		.loc 1 1107 0
 1022              		.cfi_startproc
 1023              		@ args = 0, pretend = 0, frame = 0
 1024              		@ frame_needed = 0, uses_anonymous_args = 0
 1025              		@ link register save eliminated.
 1026              	.LVL83:
1113:Libraries/STM32F10x_StdPeriph_Driver/src/stm32f10x_rcc.c ****   }
 1027              		.loc 1 1113 0
 1028 0000 044A     		ldr	r2, .L102
 1029 0002 D369     		ldr	r3, [r2, #28]
1111:Libraries/STM32F10x_StdPeriph_Driver/src/stm32f10x_rcc.c ****   {
 1030              		.loc 1 1111 0
 1031 0004 19B9     		cbnz	r1, .L101
1117:Libraries/STM32F10x_StdPeriph_Driver/src/stm32f10x_rcc.c ****   }
 1032              		.loc 1 1117 0
 1033 0006 23EA0000 		bic	r0, r3, r0
 1034              	.LVL84:
 1035 000a D061     		str	r0, [r2, #28]
1119:Libraries/STM32F10x_StdPeriph_Driver/src/stm32f10x_rcc.c **** 
 1036              		.loc 1 1119 0
 1037 000c 7047     		bx	lr
 1038              	.LVL85:
 1039              	.L101:
1113:Libraries/STM32F10x_StdPeriph_Driver/src/stm32f10x_rcc.c ****   }
 1040              		.loc 1 1113 0
 1041 000e 1843     		orrs	r0, r0, r3
 1042              	.LVL86:
 1043 0010 D061     		str	r0, [r2, #28]
 1044 0012 7047     		bx	lr
 1045              	.L103:
 1046              		.align	2
 1047              	.L102:
 1048 0014 00100240 		.word	1073876992
 1049              		.cfi_endproc
 1050              	.LFE49:
 1052              		.section	.text.RCC_APB2PeriphResetCmd,"ax",%progbits
 1053              		.align	1
 1054              		.p2align 2,,3
 1055              		.global	RCC_APB2PeriphResetCmd
 1056              		.syntax unified
 1057              		.thumb
 1058              		.thumb_func
 1059              		.fpu softvfp
 1061              	RCC_APB2PeriphResetCmd:
 1062              	.LFB50:
1164:Libraries/STM32F10x_StdPeriph_Driver/src/stm32f10x_rcc.c ****   /* Check the parameters */
 1063              		.loc 1 1164 0
 1064              		.cfi_startproc
 1065              		@ args = 0, pretend = 0, frame = 0
 1066              		@ frame_needed = 0, uses_anonymous_args = 0
 1067              		@ link register save eliminated.
 1068              	.LVL87:
1170:Libraries/STM32F10x_StdPeriph_Driver/src/stm32f10x_rcc.c ****   }
 1069              		.loc 1 1170 0
 1070 0000 044A     		ldr	r2, .L108
 1071 0002 D368     		ldr	r3, [r2, #12]
1168:Libraries/STM32F10x_StdPeriph_Driver/src/stm32f10x_rcc.c ****   {
 1072              		.loc 1 1168 0
 1073 0004 19B9     		cbnz	r1, .L107
1174:Libraries/STM32F10x_StdPeriph_Driver/src/stm32f10x_rcc.c ****   }
 1074              		.loc 1 1174 0
 1075 0006 23EA0000 		bic	r0, r3, r0
 1076              	.LVL88:
 1077 000a D060     		str	r0, [r2, #12]
1176:Libraries/STM32F10x_StdPeriph_Driver/src/stm32f10x_rcc.c **** 
 1078              		.loc 1 1176 0
 1079 000c 7047     		bx	lr
 1080              	.LVL89:
 1081              	.L107:
1170:Libraries/STM32F10x_StdPeriph_Driver/src/stm32f10x_rcc.c ****   }
 1082              		.loc 1 1170 0
 1083 000e 1843     		orrs	r0, r0, r3
 1084              	.LVL90:
 1085 0010 D060     		str	r0, [r2, #12]
 1086 0012 7047     		bx	lr
 1087              	.L109:
 1088              		.align	2
 1089              	.L108:
 1090 0014 00100240 		.word	1073876992
 1091              		.cfi_endproc
 1092              	.LFE50:
 1094              		.section	.text.RCC_APB1PeriphResetCmd,"ax",%progbits
 1095              		.align	1
 1096              		.p2align 2,,3
 1097              		.global	RCC_APB1PeriphResetCmd
 1098              		.syntax unified
 1099              		.thumb
 1100              		.thumb_func
 1101              		.fpu softvfp
 1103              	RCC_APB1PeriphResetCmd:
 1104              	.LFB51:
1194:Libraries/STM32F10x_StdPeriph_Driver/src/stm32f10x_rcc.c ****   /* Check the parameters */
 1105              		.loc 1 1194 0
 1106              		.cfi_startproc
 1107              		@ args = 0, pretend = 0, frame = 0
 1108              		@ frame_needed = 0, uses_anonymous_args = 0
 1109              		@ link register save eliminated.
 1110              	.LVL91:
1200:Libraries/STM32F10x_StdPeriph_Driver/src/stm32f10x_rcc.c ****   }
 1111              		.loc 1 1200 0
 1112 0000 044A     		ldr	r2, .L114
 1113 0002 1369     		ldr	r3, [r2, #16]
1198:Libraries/STM32F10x_StdPeriph_Driver/src/stm32f10x_rcc.c ****   {
 1114              		.loc 1 1198 0
 1115 0004 19B9     		cbnz	r1, .L113
1204:Libraries/STM32F10x_StdPeriph_Driver/src/stm32f10x_rcc.c ****   }
 1116              		.loc 1 1204 0
 1117 0006 23EA0000 		bic	r0, r3, r0
 1118              	.LVL92:
 1119 000a 1061     		str	r0, [r2, #16]
1206:Libraries/STM32F10x_StdPeriph_Driver/src/stm32f10x_rcc.c **** 
 1120              		.loc 1 1206 0
 1121 000c 7047     		bx	lr
 1122              	.LVL93:
 1123              	.L113:
1200:Libraries/STM32F10x_StdPeriph_Driver/src/stm32f10x_rcc.c ****   }
 1124              		.loc 1 1200 0
 1125 000e 1843     		orrs	r0, r0, r3
 1126              	.LVL94:
 1127 0010 1061     		str	r0, [r2, #16]
 1128 0012 7047     		bx	lr
 1129              	.L115:
 1130              		.align	2
 1131              	.L114:
 1132 0014 00100240 		.word	1073876992
 1133              		.cfi_endproc
 1134              	.LFE51:
 1136              		.section	.text.RCC_BackupResetCmd,"ax",%progbits
 1137              		.align	1
 1138              		.p2align 2,,3
 1139              		.global	RCC_BackupResetCmd
 1140              		.syntax unified
 1141              		.thumb
 1142              		.thumb_func
 1143              		.fpu softvfp
 1145              	RCC_BackupResetCmd:
 1146              	.LFB52:
1215:Libraries/STM32F10x_StdPeriph_Driver/src/stm32f10x_rcc.c ****   /* Check the parameters */
 1147              		.loc 1 1215 0
 1148              		.cfi_startproc
 1149              		@ args = 0, pretend = 0, frame = 0
 1150              		@ frame_needed = 0, uses_anonymous_args = 0
 1151              		@ link register save eliminated.
 1152              	.LVL95:
1218:Libraries/STM32F10x_StdPeriph_Driver/src/stm32f10x_rcc.c **** }
 1153              		.loc 1 1218 0
 1154 0000 014B     		ldr	r3, .L117
 1155 0002 1860     		str	r0, [r3]
1219:Libraries/STM32F10x_StdPeriph_Driver/src/stm32f10x_rcc.c **** 
 1156              		.loc 1 1219 0
 1157 0004 7047     		bx	lr
 1158              	.L118:
 1159 0006 00BF     		.align	2
 1160              	.L117:
 1161 0008 40044242 		.word	1111622720
 1162              		.cfi_endproc
 1163              	.LFE52:
 1165              		.section	.text.RCC_ClockSecuritySystemCmd,"ax",%progbits
 1166              		.align	1
 1167              		.p2align 2,,3
 1168              		.global	RCC_ClockSecuritySystemCmd
 1169              		.syntax unified
 1170              		.thumb
 1171              		.thumb_func
 1172              		.fpu softvfp
 1174              	RCC_ClockSecuritySystemCmd:
 1175              	.LFB53:
1228:Libraries/STM32F10x_StdPeriph_Driver/src/stm32f10x_rcc.c ****   /* Check the parameters */
 1176              		.loc 1 1228 0
 1177              		.cfi_startproc
 1178              		@ args = 0, pretend = 0, frame = 0
 1179              		@ frame_needed = 0, uses_anonymous_args = 0
 1180              		@ link register save eliminated.
 1181              	.LVL96:
1231:Libraries/STM32F10x_StdPeriph_Driver/src/stm32f10x_rcc.c **** }
 1182              		.loc 1 1231 0
 1183 0000 014B     		ldr	r3, .L120
 1184 0002 1860     		str	r0, [r3]
1232:Libraries/STM32F10x_StdPeriph_Driver/src/stm32f10x_rcc.c **** 
 1185              		.loc 1 1232 0
 1186 0004 7047     		bx	lr
 1187              	.L121:
 1188 0006 00BF     		.align	2
 1189              	.L120:
 1190 0008 4C004242 		.word	1111621708
 1191              		.cfi_endproc
 1192              	.LFE53:
 1194              		.section	.text.RCC_MCOConfig,"ax",%progbits
 1195              		.align	1
 1196              		.p2align 2,,3
 1197              		.global	RCC_MCOConfig
 1198              		.syntax unified
 1199              		.thumb
 1200              		.thumb_func
 1201              		.fpu softvfp
 1203              	RCC_MCOConfig:
 1204              	.LFB54:
1260:Libraries/STM32F10x_StdPeriph_Driver/src/stm32f10x_rcc.c ****   /* Check the parameters */
 1205              		.loc 1 1260 0
 1206              		.cfi_startproc
 1207              		@ args = 0, pretend = 0, frame = 0
 1208              		@ frame_needed = 0, uses_anonymous_args = 0
 1209              		@ link register save eliminated.
 1210              	.LVL97:
1265:Libraries/STM32F10x_StdPeriph_Driver/src/stm32f10x_rcc.c **** }
 1211              		.loc 1 1265 0
 1212 0000 014B     		ldr	r3, .L123
 1213 0002 1870     		strb	r0, [r3]
1266:Libraries/STM32F10x_StdPeriph_Driver/src/stm32f10x_rcc.c **** 
 1214              		.loc 1 1266 0
 1215 0004 7047     		bx	lr
 1216              	.L124:
 1217 0006 00BF     		.align	2
 1218              	.L123:
 1219 0008 07100240 		.word	1073876999
 1220              		.cfi_endproc
 1221              	.LFE54:
 1223              		.section	.text.RCC_GetFlagStatus,"ax",%progbits
 1224              		.align	1
 1225              		.p2align 2,,3
 1226              		.global	RCC_GetFlagStatus
 1227              		.syntax unified
 1228              		.thumb
 1229              		.thumb_func
 1230              		.fpu softvfp
 1232              	RCC_GetFlagStatus:
 1233              	.LFB55:
1304:Libraries/STM32F10x_StdPeriph_Driver/src/stm32f10x_rcc.c ****   uint32_t tmp = 0;
 1234              		.loc 1 1304 0
 1235              		.cfi_startproc
 1236              		@ args = 0, pretend = 0, frame = 0
 1237              		@ frame_needed = 0, uses_anonymous_args = 0
 1238              		@ link register save eliminated.
 1239              	.LVL98:
1312:Libraries/STM32F10x_StdPeriph_Driver/src/stm32f10x_rcc.c ****   if (tmp == 1)               /* The flag to check is in CR register */
 1240              		.loc 1 1312 0
 1241 0000 4309     		lsrs	r3, r0, #5
 1242              	.LVL99:
1313:Libraries/STM32F10x_StdPeriph_Driver/src/stm32f10x_rcc.c ****   {
 1243              		.loc 1 1313 0
 1244 0002 012B     		cmp	r3, #1
 1245 0004 0BD0     		beq	.L129
1317:Libraries/STM32F10x_StdPeriph_Driver/src/stm32f10x_rcc.c ****   {
 1246              		.loc 1 1317 0
 1247 0006 022B     		cmp	r3, #2
1319:Libraries/STM32F10x_StdPeriph_Driver/src/stm32f10x_rcc.c ****   }
 1248              		.loc 1 1319 0
 1249 0008 094B     		ldr	r3, .L130
 1250              	.LVL100:
1327:Libraries/STM32F10x_StdPeriph_Driver/src/stm32f10x_rcc.c ****   if ((statusreg & ((uint32_t)1 << tmp)) != (uint32_t)RESET)
 1251              		.loc 1 1327 0
 1252 000a 00F01F00 		and	r0, r0, #31
 1253              	.LVL101:
1319:Libraries/STM32F10x_StdPeriph_Driver/src/stm32f10x_rcc.c ****   }
 1254              		.loc 1 1319 0
 1255 000e 0CBF     		ite	eq
 1256 0010 1B6A     		ldreq	r3, [r3, #32]
 1257              	.LVL102:
1323:Libraries/STM32F10x_StdPeriph_Driver/src/stm32f10x_rcc.c ****   }
 1258              		.loc 1 1323 0
 1259 0012 5B6A     		ldrne	r3, [r3, #36]
 1260              	.LVL103:
 1261              		.loc 1 1328 0
 1262 0014 23FA00F0 		lsr	r0, r3, r0
1329:Libraries/STM32F10x_StdPeriph_Driver/src/stm32f10x_rcc.c ****   {
1330:Libraries/STM32F10x_StdPeriph_Driver/src/stm32f10x_rcc.c ****     bitstatus = SET;
1331:Libraries/STM32F10x_StdPeriph_Driver/src/stm32f10x_rcc.c ****   }
1332:Libraries/STM32F10x_StdPeriph_Driver/src/stm32f10x_rcc.c ****   else
1333:Libraries/STM32F10x_StdPeriph_Driver/src/stm32f10x_rcc.c ****   {
1334:Libraries/STM32F10x_StdPeriph_Driver/src/stm32f10x_rcc.c ****     bitstatus = RESET;
1335:Libraries/STM32F10x_StdPeriph_Driver/src/stm32f10x_rcc.c ****   }
1336:Libraries/STM32F10x_StdPeriph_Driver/src/stm32f10x_rcc.c **** 
1337:Libraries/STM32F10x_StdPeriph_Driver/src/stm32f10x_rcc.c ****   /* Return the flag status */
1338:Libraries/STM32F10x_StdPeriph_Driver/src/stm32f10x_rcc.c ****   return bitstatus;
1339:Libraries/STM32F10x_StdPeriph_Driver/src/stm32f10x_rcc.c **** }
 1263              		.loc 1 1339 0
 1264 0018 00F00100 		and	r0, r0, #1
 1265 001c 7047     		bx	lr
 1266              	.LVL104:
 1267              	.L129:
1315:Libraries/STM32F10x_StdPeriph_Driver/src/stm32f10x_rcc.c ****   }
 1268              		.loc 1 1315 0
 1269 001e 044B     		ldr	r3, .L130
 1270              	.LVL105:
1327:Libraries/STM32F10x_StdPeriph_Driver/src/stm32f10x_rcc.c ****   if ((statusreg & ((uint32_t)1 << tmp)) != (uint32_t)RESET)
 1271              		.loc 1 1327 0
 1272 0020 00F01F00 		and	r0, r0, #31
 1273              	.LVL106:
1315:Libraries/STM32F10x_StdPeriph_Driver/src/stm32f10x_rcc.c ****   }
 1274              		.loc 1 1315 0
 1275 0024 1B68     		ldr	r3, [r3]
 1276              	.LVL107:
1328:Libraries/STM32F10x_StdPeriph_Driver/src/stm32f10x_rcc.c ****   {
 1277              		.loc 1 1328 0
 1278 0026 23FA00F0 		lsr	r0, r3, r0
 1279              		.loc 1 1339 0
 1280 002a 00F00100 		and	r0, r0, #1
 1281 002e 7047     		bx	lr
 1282              	.L131:
 1283              		.align	2
 1284              	.L130:
 1285 0030 00100240 		.word	1073876992
 1286              		.cfi_endproc
 1287              	.LFE55:
 1289              		.section	.text.RCC_ClearFlag,"ax",%progbits
 1290              		.align	1
 1291              		.p2align 2,,3
 1292              		.global	RCC_ClearFlag
 1293              		.syntax unified
 1294              		.thumb
 1295              		.thumb_func
 1296              		.fpu softvfp
 1298              	RCC_ClearFlag:
 1299              	.LFB56:
1340:Libraries/STM32F10x_StdPeriph_Driver/src/stm32f10x_rcc.c **** 
1341:Libraries/STM32F10x_StdPeriph_Driver/src/stm32f10x_rcc.c **** /**
1342:Libraries/STM32F10x_StdPeriph_Driver/src/stm32f10x_rcc.c ****   * @brief  Clears the RCC reset flags.
1343:Libraries/STM32F10x_StdPeriph_Driver/src/stm32f10x_rcc.c ****   * @note   The reset flags are: RCC_FLAG_PINRST, RCC_FLAG_PORRST, RCC_FLAG_SFTRST,
1344:Libraries/STM32F10x_StdPeriph_Driver/src/stm32f10x_rcc.c ****   *   RCC_FLAG_IWDGRST, RCC_FLAG_WWDGRST, RCC_FLAG_LPWRRST
1345:Libraries/STM32F10x_StdPeriph_Driver/src/stm32f10x_rcc.c ****   * @param  None
1346:Libraries/STM32F10x_StdPeriph_Driver/src/stm32f10x_rcc.c ****   * @retval None
1347:Libraries/STM32F10x_StdPeriph_Driver/src/stm32f10x_rcc.c ****   */
1348:Libraries/STM32F10x_StdPeriph_Driver/src/stm32f10x_rcc.c **** void RCC_ClearFlag(void)
1349:Libraries/STM32F10x_StdPeriph_Driver/src/stm32f10x_rcc.c **** {
 1300              		.loc 1 1349 0
 1301              		.cfi_startproc
 1302              		@ args = 0, pretend = 0, frame = 0
 1303              		@ frame_needed = 0, uses_anonymous_args = 0
 1304              		@ link register save eliminated.
1350:Libraries/STM32F10x_StdPeriph_Driver/src/stm32f10x_rcc.c ****   /* Set RMVF bit to clear the reset flags */
1351:Libraries/STM32F10x_StdPeriph_Driver/src/stm32f10x_rcc.c ****   RCC->CSR |= CSR_RMVF_Set;
 1305              		.loc 1 1351 0
 1306 0000 024A     		ldr	r2, .L133
 1307 0002 536A     		ldr	r3, [r2, #36]
 1308 0004 43F08073 		orr	r3, r3, #16777216
 1309 0008 5362     		str	r3, [r2, #36]
1352:Libraries/STM32F10x_StdPeriph_Driver/src/stm32f10x_rcc.c **** }
 1310              		.loc 1 1352 0
 1311 000a 7047     		bx	lr
 1312              	.L134:
 1313              		.align	2
 1314              	.L133:
 1315 000c 00100240 		.word	1073876992
 1316              		.cfi_endproc
 1317              	.LFE56:
 1319              		.section	.text.RCC_GetITStatus,"ax",%progbits
 1320              		.align	1
 1321              		.p2align 2,,3
 1322              		.global	RCC_GetITStatus
 1323              		.syntax unified
 1324              		.thumb
 1325              		.thumb_func
 1326              		.fpu softvfp
 1328              	RCC_GetITStatus:
 1329              	.LFB57:
1353:Libraries/STM32F10x_StdPeriph_Driver/src/stm32f10x_rcc.c **** 
1354:Libraries/STM32F10x_StdPeriph_Driver/src/stm32f10x_rcc.c **** /**
1355:Libraries/STM32F10x_StdPeriph_Driver/src/stm32f10x_rcc.c ****   * @brief  Checks whether the specified RCC interrupt has occurred or not.
1356:Libraries/STM32F10x_StdPeriph_Driver/src/stm32f10x_rcc.c ****   * @param  RCC_IT: specifies the RCC interrupt source to check.
1357:Libraries/STM32F10x_StdPeriph_Driver/src/stm32f10x_rcc.c ****   *   
1358:Libraries/STM32F10x_StdPeriph_Driver/src/stm32f10x_rcc.c ****   *   For @b STM32_Connectivity_line_devices, this parameter can be one of the
1359:Libraries/STM32F10x_StdPeriph_Driver/src/stm32f10x_rcc.c ****   *   following values:
1360:Libraries/STM32F10x_StdPeriph_Driver/src/stm32f10x_rcc.c ****   *     @arg RCC_IT_LSIRDY: LSI ready interrupt
1361:Libraries/STM32F10x_StdPeriph_Driver/src/stm32f10x_rcc.c ****   *     @arg RCC_IT_LSERDY: LSE ready interrupt
1362:Libraries/STM32F10x_StdPeriph_Driver/src/stm32f10x_rcc.c ****   *     @arg RCC_IT_HSIRDY: HSI ready interrupt
1363:Libraries/STM32F10x_StdPeriph_Driver/src/stm32f10x_rcc.c ****   *     @arg RCC_IT_HSERDY: HSE ready interrupt
1364:Libraries/STM32F10x_StdPeriph_Driver/src/stm32f10x_rcc.c ****   *     @arg RCC_IT_PLLRDY: PLL ready interrupt
1365:Libraries/STM32F10x_StdPeriph_Driver/src/stm32f10x_rcc.c ****   *     @arg RCC_IT_PLL2RDY: PLL2 ready interrupt 
1366:Libraries/STM32F10x_StdPeriph_Driver/src/stm32f10x_rcc.c ****   *     @arg RCC_IT_PLL3RDY: PLL3 ready interrupt                      
1367:Libraries/STM32F10x_StdPeriph_Driver/src/stm32f10x_rcc.c ****   *     @arg RCC_IT_CSS: Clock Security System interrupt
1368:Libraries/STM32F10x_StdPeriph_Driver/src/stm32f10x_rcc.c ****   * 
1369:Libraries/STM32F10x_StdPeriph_Driver/src/stm32f10x_rcc.c ****   *   For @b other_STM32_devices, this parameter can be one of the following values:        
1370:Libraries/STM32F10x_StdPeriph_Driver/src/stm32f10x_rcc.c ****   *     @arg RCC_IT_LSIRDY: LSI ready interrupt
1371:Libraries/STM32F10x_StdPeriph_Driver/src/stm32f10x_rcc.c ****   *     @arg RCC_IT_LSERDY: LSE ready interrupt
1372:Libraries/STM32F10x_StdPeriph_Driver/src/stm32f10x_rcc.c ****   *     @arg RCC_IT_HSIRDY: HSI ready interrupt
1373:Libraries/STM32F10x_StdPeriph_Driver/src/stm32f10x_rcc.c ****   *     @arg RCC_IT_HSERDY: HSE ready interrupt
1374:Libraries/STM32F10x_StdPeriph_Driver/src/stm32f10x_rcc.c ****   *     @arg RCC_IT_PLLRDY: PLL ready interrupt
1375:Libraries/STM32F10x_StdPeriph_Driver/src/stm32f10x_rcc.c ****   *     @arg RCC_IT_CSS: Clock Security System interrupt
1376:Libraries/STM32F10x_StdPeriph_Driver/src/stm32f10x_rcc.c ****   *   
1377:Libraries/STM32F10x_StdPeriph_Driver/src/stm32f10x_rcc.c ****   * @retval The new state of RCC_IT (SET or RESET).
1378:Libraries/STM32F10x_StdPeriph_Driver/src/stm32f10x_rcc.c ****   */
1379:Libraries/STM32F10x_StdPeriph_Driver/src/stm32f10x_rcc.c **** ITStatus RCC_GetITStatus(uint8_t RCC_IT)
1380:Libraries/STM32F10x_StdPeriph_Driver/src/stm32f10x_rcc.c **** {
 1330              		.loc 1 1380 0
 1331              		.cfi_startproc
 1332              		@ args = 0, pretend = 0, frame = 0
 1333              		@ frame_needed = 0, uses_anonymous_args = 0
 1334              		@ link register save eliminated.
 1335              	.LVL108:
1381:Libraries/STM32F10x_StdPeriph_Driver/src/stm32f10x_rcc.c ****   ITStatus bitstatus = RESET;
1382:Libraries/STM32F10x_StdPeriph_Driver/src/stm32f10x_rcc.c ****   /* Check the parameters */
1383:Libraries/STM32F10x_StdPeriph_Driver/src/stm32f10x_rcc.c ****   assert_param(IS_RCC_GET_IT(RCC_IT));
1384:Libraries/STM32F10x_StdPeriph_Driver/src/stm32f10x_rcc.c **** 
1385:Libraries/STM32F10x_StdPeriph_Driver/src/stm32f10x_rcc.c ****   /* Check the status of the specified RCC interrupt */
1386:Libraries/STM32F10x_StdPeriph_Driver/src/stm32f10x_rcc.c ****   if ((RCC->CIR & RCC_IT) != (uint32_t)RESET)
 1336              		.loc 1 1386 0
 1337 0000 034B     		ldr	r3, .L136
 1338 0002 9B68     		ldr	r3, [r3, #8]
 1339              	.LVL109:
 1340 0004 1842     		tst	r0, r3
1387:Libraries/STM32F10x_StdPeriph_Driver/src/stm32f10x_rcc.c ****   {
1388:Libraries/STM32F10x_StdPeriph_Driver/src/stm32f10x_rcc.c ****     bitstatus = SET;
1389:Libraries/STM32F10x_StdPeriph_Driver/src/stm32f10x_rcc.c ****   }
1390:Libraries/STM32F10x_StdPeriph_Driver/src/stm32f10x_rcc.c ****   else
1391:Libraries/STM32F10x_StdPeriph_Driver/src/stm32f10x_rcc.c ****   {
1392:Libraries/STM32F10x_StdPeriph_Driver/src/stm32f10x_rcc.c ****     bitstatus = RESET;
1393:Libraries/STM32F10x_StdPeriph_Driver/src/stm32f10x_rcc.c ****   }
1394:Libraries/STM32F10x_StdPeriph_Driver/src/stm32f10x_rcc.c **** 
1395:Libraries/STM32F10x_StdPeriph_Driver/src/stm32f10x_rcc.c ****   /* Return the RCC_IT status */
1396:Libraries/STM32F10x_StdPeriph_Driver/src/stm32f10x_rcc.c ****   return  bitstatus;
1397:Libraries/STM32F10x_StdPeriph_Driver/src/stm32f10x_rcc.c **** }
 1341              		.loc 1 1397 0
 1342 0006 14BF     		ite	ne
 1343 0008 0120     		movne	r0, #1
 1344              	.LVL110:
 1345 000a 0020     		moveq	r0, #0
 1346 000c 7047     		bx	lr
 1347              	.L137:
 1348 000e 00BF     		.align	2
 1349              	.L136:
 1350 0010 00100240 		.word	1073876992
 1351              		.cfi_endproc
 1352              	.LFE57:
 1354              		.section	.text.RCC_ClearITPendingBit,"ax",%progbits
 1355              		.align	1
 1356              		.p2align 2,,3
 1357              		.global	RCC_ClearITPendingBit
 1358              		.syntax unified
 1359              		.thumb
 1360              		.thumb_func
 1361              		.fpu softvfp
 1363              	RCC_ClearITPendingBit:
 1364              	.LFB58:
1398:Libraries/STM32F10x_StdPeriph_Driver/src/stm32f10x_rcc.c **** 
1399:Libraries/STM32F10x_StdPeriph_Driver/src/stm32f10x_rcc.c **** /**
1400:Libraries/STM32F10x_StdPeriph_Driver/src/stm32f10x_rcc.c ****   * @brief  Clears the RCCs interrupt pending bits.
1401:Libraries/STM32F10x_StdPeriph_Driver/src/stm32f10x_rcc.c ****   * @param  RCC_IT: specifies the interrupt pending bit to clear.
1402:Libraries/STM32F10x_StdPeriph_Driver/src/stm32f10x_rcc.c ****   *   
1403:Libraries/STM32F10x_StdPeriph_Driver/src/stm32f10x_rcc.c ****   *   For @b STM32_Connectivity_line_devices, this parameter can be any combination
1404:Libraries/STM32F10x_StdPeriph_Driver/src/stm32f10x_rcc.c ****   *   of the following values:
1405:Libraries/STM32F10x_StdPeriph_Driver/src/stm32f10x_rcc.c ****   *     @arg RCC_IT_LSIRDY: LSI ready interrupt
1406:Libraries/STM32F10x_StdPeriph_Driver/src/stm32f10x_rcc.c ****   *     @arg RCC_IT_LSERDY: LSE ready interrupt
1407:Libraries/STM32F10x_StdPeriph_Driver/src/stm32f10x_rcc.c ****   *     @arg RCC_IT_HSIRDY: HSI ready interrupt
1408:Libraries/STM32F10x_StdPeriph_Driver/src/stm32f10x_rcc.c ****   *     @arg RCC_IT_HSERDY: HSE ready interrupt
1409:Libraries/STM32F10x_StdPeriph_Driver/src/stm32f10x_rcc.c ****   *     @arg RCC_IT_PLLRDY: PLL ready interrupt
1410:Libraries/STM32F10x_StdPeriph_Driver/src/stm32f10x_rcc.c ****   *     @arg RCC_IT_PLL2RDY: PLL2 ready interrupt 
1411:Libraries/STM32F10x_StdPeriph_Driver/src/stm32f10x_rcc.c ****   *     @arg RCC_IT_PLL3RDY: PLL3 ready interrupt                      
1412:Libraries/STM32F10x_StdPeriph_Driver/src/stm32f10x_rcc.c ****   *     @arg RCC_IT_CSS: Clock Security System interrupt
1413:Libraries/STM32F10x_StdPeriph_Driver/src/stm32f10x_rcc.c ****   * 
1414:Libraries/STM32F10x_StdPeriph_Driver/src/stm32f10x_rcc.c ****   *   For @b other_STM32_devices, this parameter can be any combination of the
1415:Libraries/STM32F10x_StdPeriph_Driver/src/stm32f10x_rcc.c ****   *   following values:        
1416:Libraries/STM32F10x_StdPeriph_Driver/src/stm32f10x_rcc.c ****   *     @arg RCC_IT_LSIRDY: LSI ready interrupt
1417:Libraries/STM32F10x_StdPeriph_Driver/src/stm32f10x_rcc.c ****   *     @arg RCC_IT_LSERDY: LSE ready interrupt
1418:Libraries/STM32F10x_StdPeriph_Driver/src/stm32f10x_rcc.c ****   *     @arg RCC_IT_HSIRDY: HSI ready interrupt
1419:Libraries/STM32F10x_StdPeriph_Driver/src/stm32f10x_rcc.c ****   *     @arg RCC_IT_HSERDY: HSE ready interrupt
1420:Libraries/STM32F10x_StdPeriph_Driver/src/stm32f10x_rcc.c ****   *     @arg RCC_IT_PLLRDY: PLL ready interrupt
1421:Libraries/STM32F10x_StdPeriph_Driver/src/stm32f10x_rcc.c ****   *   
1422:Libraries/STM32F10x_StdPeriph_Driver/src/stm32f10x_rcc.c ****   *     @arg RCC_IT_CSS: Clock Security System interrupt
1423:Libraries/STM32F10x_StdPeriph_Driver/src/stm32f10x_rcc.c ****   * @retval None
1424:Libraries/STM32F10x_StdPeriph_Driver/src/stm32f10x_rcc.c ****   */
1425:Libraries/STM32F10x_StdPeriph_Driver/src/stm32f10x_rcc.c **** void RCC_ClearITPendingBit(uint8_t RCC_IT)
1426:Libraries/STM32F10x_StdPeriph_Driver/src/stm32f10x_rcc.c **** {
 1365              		.loc 1 1426 0
 1366              		.cfi_startproc
 1367              		@ args = 0, pretend = 0, frame = 0
 1368              		@ frame_needed = 0, uses_anonymous_args = 0
 1369              		@ link register save eliminated.
 1370              	.LVL111:
1427:Libraries/STM32F10x_StdPeriph_Driver/src/stm32f10x_rcc.c ****   /* Check the parameters */
1428:Libraries/STM32F10x_StdPeriph_Driver/src/stm32f10x_rcc.c ****   assert_param(IS_RCC_CLEAR_IT(RCC_IT));
1429:Libraries/STM32F10x_StdPeriph_Driver/src/stm32f10x_rcc.c **** 
1430:Libraries/STM32F10x_StdPeriph_Driver/src/stm32f10x_rcc.c ****   /* Perform Byte access to RCC_CIR[23:16] bits to clear the selected interrupt
1431:Libraries/STM32F10x_StdPeriph_Driver/src/stm32f10x_rcc.c ****      pending bits */
1432:Libraries/STM32F10x_StdPeriph_Driver/src/stm32f10x_rcc.c ****   *(__IO uint8_t *) CIR_BYTE3_ADDRESS = RCC_IT;
 1371              		.loc 1 1432 0
 1372 0000 014B     		ldr	r3, .L139
 1373 0002 1870     		strb	r0, [r3]
1433:Libraries/STM32F10x_StdPeriph_Driver/src/stm32f10x_rcc.c **** }
 1374              		.loc 1 1433 0
 1375 0004 7047     		bx	lr
 1376              	.L140:
 1377 0006 00BF     		.align	2
 1378              	.L139:
 1379 0008 0A100240 		.word	1073877002
 1380              		.cfi_endproc
 1381              	.LFE58:
 1383              		.section	.data.ADCPrescTable,"aw",%progbits
 1384              		.align	2
 1385              		.set	.LANCHOR1,. + 0
 1388              	ADCPrescTable:
 1389 0000 02       		.byte	2
 1390 0001 04       		.byte	4
 1391 0002 06       		.byte	6
 1392 0003 08       		.byte	8
 1393              		.section	.data.APBAHBPrescTable,"aw",%progbits
 1394              		.align	2
 1395              		.set	.LANCHOR0,. + 0
 1398              	APBAHBPrescTable:
 1399 0000 00       		.byte	0
 1400 0001 00       		.byte	0
 1401 0002 00       		.byte	0
 1402 0003 00       		.byte	0
 1403 0004 01       		.byte	1
 1404 0005 02       		.byte	2
 1405 0006 03       		.byte	3
 1406 0007 04       		.byte	4
 1407 0008 01       		.byte	1
 1408 0009 02       		.byte	2
 1409 000a 03       		.byte	3
 1410 000b 04       		.byte	4
 1411 000c 06       		.byte	6
 1412 000d 07       		.byte	7
 1413 000e 08       		.byte	8
 1414 000f 09       		.byte	9
 1415              		.text
 1416              	.Letext0:
 1417              		.file 2 "c:\\program files (x86)\\gnu tools arm embedded\\7 2017-q4-major\\arm-none-eabi\\include\
 1418              		.file 3 "c:\\program files (x86)\\gnu tools arm embedded\\7 2017-q4-major\\arm-none-eabi\\include\
 1419              		.file 4 "./Libraries/CMSIS/Core/CM3/system_stm32f10x.h"
 1420              		.file 5 "./Libraries/CMSIS/Core/CM3/stm32f10x.h"
 1421              		.file 6 "./Libraries/STM32F10x_StdPeriph_Driver/inc/stm32f10x_rcc.h"